ARM GAS  C:\Users\Gaurav\AppData\Local\Temp\ccfNPcVj.s 			page 1


   1              		.cpu cortex-m0
   2              		.fpu softvfp
   3              		.eabi_attribute 20, 1
   4              		.eabi_attribute 21, 1
   5              		.eabi_attribute 23, 3
   6              		.eabi_attribute 24, 1
   7              		.eabi_attribute 25, 1
   8              		.eabi_attribute 26, 1
   9              		.eabi_attribute 30, 6
  10              		.eabi_attribute 34, 0
  11              		.eabi_attribute 18, 4
  12              		.code	16
  13              		.file	"BLE_Interface.c"
  14              		.text
  15              	.Ltext0:
  16              		.cfi_sections	.debug_frame
  17              		.bss
  18              	connectionParamIndex:
  19 0000 00       		.space	1
  20              	connectionParamState:
  21 0001 00       		.space	1
  22              		.data
  23              		.align	2
  24              		.type	midiConnectionParam, %object
  25              		.size	midiConnectionParam, 16
  26              	midiConnectionParam:
  27 0000 0800     		.short	8
  28 0002 0A00     		.short	10
  29 0004 C800     		.short	200
  30 0006 6400     		.short	100
  31 0008 0B00     		.short	11
  32 000a 0D00     		.short	13
  33 000c C800     		.short	200
  34 000e 6400     		.short	100
  35              		.section	.text.BLE_Start,"ax",%progbits
  36              		.align	2
  37              		.global	BLE_Start
  38              		.code	16
  39              		.thumb_func
  40              		.type	BLE_Start, %function
  41              	BLE_Start:
  42              	.LFB37:
  43              		.file 1 ".\\BLE_Interface.c"
   1:.\BLE_Interface.c **** /*******************************************************************************
   2:.\BLE_Interface.c **** * File Name: BLE.c
   3:.\BLE_Interface.c **** *
   4:.\BLE_Interface.c **** * Description:
   5:.\BLE_Interface.c **** *  This file contains BLE related functions and event handlers
   6:.\BLE_Interface.c **** * 
   7:.\BLE_Interface.c **** ********************************************************************************
   8:.\BLE_Interface.c **** * Copyright 2015, Cypress Semiconductor Corporation.  All rights reserved.
   9:.\BLE_Interface.c **** * You may use this file only in accordance with the license, terms, conditions,
  10:.\BLE_Interface.c **** * disclaimers, and limitations in the end user license agreement accompanying
  11:.\BLE_Interface.c **** * the software package with which this file was provided.
  12:.\BLE_Interface.c **** *******************************************************************************/
  13:.\BLE_Interface.c **** 
  14:.\BLE_Interface.c **** #include <BLE_Interface.h>
ARM GAS  C:\Users\Gaurav\AppData\Local\Temp\ccfNPcVj.s 			page 2


  15:.\BLE_Interface.c **** #include <Configuration.h>
  16:.\BLE_Interface.c **** #include <Logger.h>
  17:.\BLE_Interface.c **** #include <MIDI.h>
  18:.\BLE_Interface.c **** #include <Project.h>
  19:.\BLE_Interface.c **** 
  20:.\BLE_Interface.c **** /***************************************
  21:.\BLE_Interface.c **** *        Global and Static variables
  22:.\BLE_Interface.c **** ***************************************/
  23:.\BLE_Interface.c **** static BLE_CONNECTION_PARAM_INDEX connectionParamIndex = LOW_LATENCY_CONNECTION_PARAMETER_INDEX;
  24:.\BLE_Interface.c **** static BLE_CONNECTION_PARAM_STATE connectionParamState = CONNECTION_PARAMETER_IDLE_STATE;
  25:.\BLE_Interface.c **** 
  26:.\BLE_Interface.c **** static CYBLE_GAP_CONN_UPDATE_PARAM_T midiConnectionParam[] =
  27:.\BLE_Interface.c **** {
  28:.\BLE_Interface.c ****     /* Connection parameter low latency */
  29:.\BLE_Interface.c ****     {
  30:.\BLE_Interface.c ****         8,        /* Minimum connection interval of 11.25 ms */
  31:.\BLE_Interface.c ****         10,        /* Maximum connection interval of 11.25 ms */
  32:.\BLE_Interface.c ****         200,          /* Slave latency */
  33:.\BLE_Interface.c ****         100        /* Supervision timeout of 5 seconds */
  34:.\BLE_Interface.c ****     },
  35:.\BLE_Interface.c ****     /* Connection parameter mid latency */
  36:.\BLE_Interface.c ****     {
  37:.\BLE_Interface.c ****         11,        /* Minimum connection interval of 15 ms */
  38:.\BLE_Interface.c ****         13,        /* Maximum connection interval of 15 ms */
  39:.\BLE_Interface.c ****         200,          /* Slave latency */
  40:.\BLE_Interface.c ****         100        /* Supervision timeout of 1 seconds */
  41:.\BLE_Interface.c ****     },
  42:.\BLE_Interface.c **** };
  43:.\BLE_Interface.c **** 
  44:.\BLE_Interface.c **** /*******************************************************************************
  45:.\BLE_Interface.c **** * Function Name: BLE_Start
  46:.\BLE_Interface.c **** ********************************************************************************
  47:.\BLE_Interface.c **** * Summary:
  48:.\BLE_Interface.c **** *        Start the BLE interface
  49:.\BLE_Interface.c **** *
  50:.\BLE_Interface.c **** * Parameters:
  51:.\BLE_Interface.c **** *  void
  52:.\BLE_Interface.c **** *
  53:.\BLE_Interface.c **** * Return:
  54:.\BLE_Interface.c **** *  uint8 - status of BLE interface initialization
  55:.\BLE_Interface.c **** *
  56:.\BLE_Interface.c **** *******************************************************************************/
  57:.\BLE_Interface.c **** uint8 BLE_Start(void)
  58:.\BLE_Interface.c **** {
  44              		.loc 1 58 0
  45              		.cfi_startproc
  46 0000 90B5     		push	{r4, r7, lr}
  47              		.cfi_def_cfa_offset 12
  48              		.cfi_offset 4, -12
  49              		.cfi_offset 7, -8
  50              		.cfi_offset 14, -4
  51 0002 83B0     		sub	sp, sp, #12
  52              		.cfi_def_cfa_offset 24
  53 0004 00AF     		add	r7, sp, #0
  54              		.cfi_def_cfa_register 7
  59:.\BLE_Interface.c ****     CYBLE_API_RESULT_T apiResult;
  60:.\BLE_Interface.c **** 
ARM GAS  C:\Users\Gaurav\AppData\Local\Temp\ccfNPcVj.s 			page 3


  61:.\BLE_Interface.c ****     apiResult = CyBle_Start(StackEventHandler);
  55              		.loc 1 61 0
  56 0006 BC1D     		add	r4, r7, #6
  57 0008 094B     		ldr	r3, .L4
  58 000a 181C     		mov	r0, r3
  59 000c FFF7FEFF 		bl	CyBle_Start
  60 0010 031C     		mov	r3, r0
  61 0012 2380     		strh	r3, [r4]
  62:.\BLE_Interface.c **** 
  63:.\BLE_Interface.c ****     if(apiResult != CYBLE_ERROR_OK)
  62              		.loc 1 63 0
  63 0014 BB1D     		add	r3, r7, #6
  64 0016 1B88     		ldrh	r3, [r3]
  65 0018 002B     		cmp	r3, #0
  66 001a 01D0     		beq	.L2
  64:.\BLE_Interface.c ****     {
  65:.\BLE_Interface.c ****         return 0;
  67              		.loc 1 65 0
  68 001c 0023     		mov	r3, #0
  69 001e 02E0     		b	.L3
  70              	.L2:
  66:.\BLE_Interface.c ****     }
  67:.\BLE_Interface.c ****     
  68:.\BLE_Interface.c ****     BLE_StateInit();
  71              		.loc 1 68 0
  72 0020 FFF7FEFF 		bl	BLE_StateInit
  69:.\BLE_Interface.c ****     
  70:.\BLE_Interface.c ****     return 1;
  73              		.loc 1 70 0
  74 0024 0123     		mov	r3, #1
  75              	.L3:
  71:.\BLE_Interface.c **** }
  76              		.loc 1 71 0
  77 0026 181C     		mov	r0, r3
  78 0028 BD46     		mov	sp, r7
  79 002a 03B0     		add	sp, sp, #12
  80              		@ sp needed
  81 002c 90BD     		pop	{r4, r7, pc}
  82              	.L5:
  83 002e C046     		.align	2
  84              	.L4:
  85 0030 00000000 		.word	StackEventHandler
  86              		.cfi_endproc
  87              	.LFE37:
  88              		.size	BLE_Start, .-BLE_Start
  89              		.section	.text.BLE_StateInit,"ax",%progbits
  90              		.align	2
  91              		.code	16
  92              		.thumb_func
  93              		.type	BLE_StateInit, %function
  94              	BLE_StateInit:
  95              	.LFB38:
  72:.\BLE_Interface.c **** 
  73:.\BLE_Interface.c **** /*******************************************************************************
  74:.\BLE_Interface.c **** * Function Name: BLE_StateInit
  75:.\BLE_Interface.c **** ********************************************************************************
  76:.\BLE_Interface.c **** * Summary:
ARM GAS  C:\Users\Gaurav\AppData\Local\Temp\ccfNPcVj.s 			page 4


  77:.\BLE_Interface.c **** *        Start the BLE interface
  78:.\BLE_Interface.c **** *
  79:.\BLE_Interface.c **** * Parameters:
  80:.\BLE_Interface.c **** *  void
  81:.\BLE_Interface.c **** *
  82:.\BLE_Interface.c **** * Return:
  83:.\BLE_Interface.c **** *  uint8 - status of BLE interface initialization
  84:.\BLE_Interface.c **** *
  85:.\BLE_Interface.c **** *******************************************************************************/
  86:.\BLE_Interface.c **** static void BLE_StateInit(void)
  87:.\BLE_Interface.c **** {
  96              		.loc 1 87 0
  97              		.cfi_startproc
  98 0000 80B5     		push	{r7, lr}
  99              		.cfi_def_cfa_offset 8
 100              		.cfi_offset 7, -8
 101              		.cfi_offset 14, -4
 102 0002 00AF     		add	r7, sp, #0
 103              		.cfi_def_cfa_register 7
  88:.\BLE_Interface.c ****     /* Start the BLE interface with a low latencey connection parameters */
  89:.\BLE_Interface.c ****     connectionParamIndex = LOW_LATENCY_CONNECTION_PARAMETER_INDEX;
 104              		.loc 1 89 0
 105 0004 034B     		ldr	r3, .L7
 106 0006 0022     		mov	r2, #0
 107 0008 1A70     		strb	r2, [r3]
  90:.\BLE_Interface.c ****     
  91:.\BLE_Interface.c ****     /* Only after the CCCD is enabled, send the connnection parameter update request */
  92:.\BLE_Interface.c ****     connectionParamState = CONNECTION_PARAMETER_IDLE_STATE;
 108              		.loc 1 92 0
 109 000a 034B     		ldr	r3, .L7+4
 110 000c 0022     		mov	r2, #0
 111 000e 1A70     		strb	r2, [r3]
  93:.\BLE_Interface.c **** }
 112              		.loc 1 93 0
 113 0010 BD46     		mov	sp, r7
 114              		@ sp needed
 115 0012 80BD     		pop	{r7, pc}
 116              	.L8:
 117              		.align	2
 118              	.L7:
 119 0014 00000000 		.word	connectionParamIndex
 120 0018 01000000 		.word	connectionParamState
 121              		.cfi_endproc
 122              	.LFE38:
 123              		.size	BLE_StateInit, .-BLE_StateInit
 124              		.section	.text.BLE_Run,"ax",%progbits
 125              		.align	2
 126              		.global	BLE_Run
 127              		.code	16
 128              		.thumb_func
 129              		.type	BLE_Run, %function
 130              	BLE_Run:
 131              	.LFB39:
  94:.\BLE_Interface.c **** 
  95:.\BLE_Interface.c **** /*******************************************************************************
  96:.\BLE_Interface.c **** * Function Name: BLE_Run
  97:.\BLE_Interface.c **** ********************************************************************************
ARM GAS  C:\Users\Gaurav\AppData\Local\Temp\ccfNPcVj.s 			page 5


  98:.\BLE_Interface.c **** * Summary:
  99:.\BLE_Interface.c **** *        Continuous BLE event processing engine module
 100:.\BLE_Interface.c **** *
 101:.\BLE_Interface.c **** * Parameters:
 102:.\BLE_Interface.c **** *  void
 103:.\BLE_Interface.c **** *
 104:.\BLE_Interface.c **** * Return:
 105:.\BLE_Interface.c **** *  None
 106:.\BLE_Interface.c **** *
 107:.\BLE_Interface.c **** *******************************************************************************/
 108:.\BLE_Interface.c **** void BLE_Run(void)
 109:.\BLE_Interface.c **** {
 132              		.loc 1 109 0
 133              		.cfi_startproc
 134 0000 80B5     		push	{r7, lr}
 135              		.cfi_def_cfa_offset 8
 136              		.cfi_offset 7, -8
 137              		.cfi_offset 14, -4
 138 0002 00AF     		add	r7, sp, #0
 139              		.cfi_def_cfa_register 7
 110:.\BLE_Interface.c ****     /* Single API call to service all the BLE stack events. Must be
 111:.\BLE_Interface.c ****      * called at least once in a BLE connection interval */
 112:.\BLE_Interface.c ****     CyBle_ProcessEvents();
 140              		.loc 1 112 0
 141 0004 FFF7FEFF 		bl	CyBle_ProcessEvents
 113:.\BLE_Interface.c ****     
 114:.\BLE_Interface.c ****     /* Setup BLE interface parameters as per MIDI transport requirements */
 115:.\BLE_Interface.c ****     UpdateMidiInterfaceConnParam(connectionParamIndex);
 142              		.loc 1 115 0
 143 0008 044B     		ldr	r3, .L10
 144 000a 1B78     		ldrb	r3, [r3]
 145 000c 181C     		mov	r0, r3
 146 000e FFF7FEFF 		bl	UpdateMidiInterfaceConnParam
 116:.\BLE_Interface.c **** 
 117:.\BLE_Interface.c ****     /* Configure BLESS in DeepSleep mode  */
 118:.\BLE_Interface.c ****     CyBle_EnterLPM(CYBLE_BLESS_DEEPSLEEP);
 147              		.loc 1 118 0
 148 0012 0320     		mov	r0, #3
 149 0014 FFF7FEFF 		bl	CyBle_EnterLPM
 119:.\BLE_Interface.c **** }
 150              		.loc 1 119 0
 151 0018 BD46     		mov	sp, r7
 152              		@ sp needed
 153 001a 80BD     		pop	{r7, pc}
 154              	.L11:
 155              		.align	2
 156              	.L10:
 157 001c 00000000 		.word	connectionParamIndex
 158              		.cfi_endproc
 159              	.LFE39:
 160              		.size	BLE_Run, .-BLE_Run
 161              		.section	.text.StackEventHandler,"ax",%progbits
 162              		.align	2
 163              		.global	StackEventHandler
 164              		.code	16
 165              		.thumb_func
 166              		.type	StackEventHandler, %function
ARM GAS  C:\Users\Gaurav\AppData\Local\Temp\ccfNPcVj.s 			page 6


 167              	StackEventHandler:
 168              	.LFB40:
 120:.\BLE_Interface.c **** 
 121:.\BLE_Interface.c **** /*******************************************************************************
 122:.\BLE_Interface.c **** * Function Name: StackEventHandler
 123:.\BLE_Interface.c **** ********************************************************************************
 124:.\BLE_Interface.c **** *
 125:.\BLE_Interface.c **** * Summary:
 126:.\BLE_Interface.c **** *  This is an event callback function to receive events from the BLE Component.
 127:.\BLE_Interface.c **** *
 128:.\BLE_Interface.c **** * Parameters:
 129:.\BLE_Interface.c **** *  uint8 event:       Event from the CYBLE component
 130:.\BLE_Interface.c **** *  void* eventParams: A structure instance for corresponding event type. The
 131:.\BLE_Interface.c **** *                     list of event structure is described in the component
 132:.\BLE_Interface.c **** *                     datasheet.
 133:.\BLE_Interface.c **** *
 134:.\BLE_Interface.c **** * Return:
 135:.\BLE_Interface.c **** *  None
 136:.\BLE_Interface.c **** *
 137:.\BLE_Interface.c **** *******************************************************************************/
 138:.\BLE_Interface.c **** void StackEventHandler(uint32 event, void *eventParam)
 139:.\BLE_Interface.c **** {
 169              		.loc 1 139 0
 170              		.cfi_startproc
 171 0000 80B5     		push	{r7, lr}
 172              		.cfi_def_cfa_offset 8
 173              		.cfi_offset 7, -8
 174              		.cfi_offset 14, -4
 175 0002 82B0     		sub	sp, sp, #8
 176              		.cfi_def_cfa_offset 16
 177 0004 00AF     		add	r7, sp, #0
 178              		.cfi_def_cfa_register 7
 179 0006 7860     		str	r0, [r7, #4]
 180 0008 3960     		str	r1, [r7]
 140:.\BLE_Interface.c ****     switch(event)
 181              		.loc 1 140 0
 182 000a 7B68     		ldr	r3, [r7, #4]
 183 000c 282B     		cmp	r3, #40
 184 000e 0DD0     		beq	.L14
 185 0010 05D8     		bhi	.L15
 186 0012 262B     		cmp	r3, #38
 187 0014 17D0     		beq	.L16
 188 0016 12D8     		bhi	.L17
 189 0018 012B     		cmp	r3, #1
 190 001a 07D0     		beq	.L14
 141:.\BLE_Interface.c ****     {
 142:.\BLE_Interface.c ****         /* Mandatory events to be handled by Find Me Target design */
 143:.\BLE_Interface.c ****         case CYBLE_EVT_STACK_ON:
 144:.\BLE_Interface.c ****         case CYBLE_EVT_GAP_DEVICE_DISCONNECTED:
 145:.\BLE_Interface.c ****             /* Start BLE advertisement for 30 seconds and update link
 146:.\BLE_Interface.c ****              * status on LEDs */
 147:.\BLE_Interface.c ****             CyBle_GappStartAdvertisement(CYBLE_ADVERTISING_FAST);
 148:.\BLE_Interface.c ****             Advertising_LED_Write(LED_ON);
 149:.\BLE_Interface.c ****             
 150:.\BLE_Interface.c ****             /* Re-initialize the BLE interface */
 151:.\BLE_Interface.c ****             BLE_StateInit();
 152:.\BLE_Interface.c ****           break;
ARM GAS  C:\Users\Gaurav\AppData\Local\Temp\ccfNPcVj.s 			page 7


 153:.\BLE_Interface.c **** 
 154:.\BLE_Interface.c ****         case CYBLE_EVT_GAP_DEVICE_CONNECTED:
 155:.\BLE_Interface.c ****             /* BLE link is established */
 156:.\BLE_Interface.c ****             Advertising_LED_Write(LED_OFF);
 157:.\BLE_Interface.c ****         break;
 158:.\BLE_Interface.c **** 
 159:.\BLE_Interface.c ****         case CYBLE_EVT_GAPP_ADVERTISEMENT_START_STOP:
 160:.\BLE_Interface.c ****             if(CyBle_GetState() == CYBLE_STATE_DISCONNECTED)
 161:.\BLE_Interface.c ****             {
 162:.\BLE_Interface.c ****                 /* Advertisement event timed out, go to low power
 163:.\BLE_Interface.c ****                  * mode (Hibernate mode) and wait for an external
 164:.\BLE_Interface.c ****                  * user event to wake up the device again */
 165:.\BLE_Interface.c ****                 Advertising_LED_Write(LED_OFF);
 166:.\BLE_Interface.c ****                 Hibernate_LED_Write(LED_ON);
 167:.\BLE_Interface.c ****                 PWM_Stop();
 168:.\BLE_Interface.c ****                 Wakeup_SW_ClearInterrupt();
 169:.\BLE_Interface.c ****                 Wakeup_Interrupt_ClearPending();
 170:.\BLE_Interface.c ****                 Wakeup_Interrupt_Start();
 171:.\BLE_Interface.c ****                 CySysPmHibernate();
 172:.\BLE_Interface.c ****             }
 173:.\BLE_Interface.c ****         break;
 174:.\BLE_Interface.c ****             
 175:.\BLE_Interface.c ****         case CYBLE_EVT_L2CAP_CONN_PARAM_UPDATE_RSP:
 176:.\BLE_Interface.c ****             if(*(uint16 *)eventParam == CONNECTION_PARAMETER_ACCEPTED)
 177:.\BLE_Interface.c ****             {
 178:.\BLE_Interface.c ****                 /* Previously sent connection parameter is accepted by the iOS/Mac device */
 179:.\BLE_Interface.c ****                 connectionParamState = CONNECTION_PARAMETER_ACCEPTED_STATE;
 180:.\BLE_Interface.c ****             }
 181:.\BLE_Interface.c ****             else if (*(uint16 *)eventParam == CONNECTION_PARAMETER_REJECTED)
 182:.\BLE_Interface.c ****             {
 183:.\BLE_Interface.c ****                 connectionParamIndex++;
 184:.\BLE_Interface.c ****                 if(connectionParamIndex != TOTAL_NUMBER_OF_CONNECTION_PARAMETERS)
 185:.\BLE_Interface.c ****                 {
 186:.\BLE_Interface.c ****                     connectionParamState = CONNECTION_PARAMETER_UPDATE_REQUIRED_STATE; 
 187:.\BLE_Interface.c ****                 }
 188:.\BLE_Interface.c ****                 else
 189:.\BLE_Interface.c ****                 {
 190:.\BLE_Interface.c ****                     connectionParamState = CONNECTION_PARAMETER_REJECTED_STATE;
 191:.\BLE_Interface.c ****                 }
 192:.\BLE_Interface.c ****             }
 193:.\BLE_Interface.c ****         break;
 194:.\BLE_Interface.c ****             
 195:.\BLE_Interface.c ****         case CYBLE_EVT_GATTS_WRITE_REQ:
 196:.\BLE_Interface.c ****             if(connectionParamState == CONNECTION_PARAMETER_IDLE_STATE)
 197:.\BLE_Interface.c ****             {
 198:.\BLE_Interface.c ****                 connectionParamState = CONNECTION_PARAMETER_UPDATE_REQUIRED_STATE;    
 199:.\BLE_Interface.c ****             }
 200:.\BLE_Interface.c ****             
 201:.\BLE_Interface.c ****             MIDIEventHandler(event, eventParam);
 202:.\BLE_Interface.c ****         break;
 203:.\BLE_Interface.c ****             
 204:.\BLE_Interface.c ****         case CYBLE_EVT_GATTS_WRITE_CMD_REQ:    
 205:.\BLE_Interface.c ****             MIDIEventHandler(event, eventParam);
 206:.\BLE_Interface.c ****         break;
 207:.\BLE_Interface.c **** 
 208:.\BLE_Interface.c ****         default:
 209:.\BLE_Interface.c ****         break;
ARM GAS  C:\Users\Gaurav\AppData\Local\Temp\ccfNPcVj.s 			page 8


 191              		.loc 1 209 0
 192 001c 5DE0     		b	.L12
 193              	.L15:
 140:.\BLE_Interface.c ****     switch(event)
 194              		.loc 1 140 0
 195 001e 4E2B     		cmp	r3, #78
 196 0020 54D0     		beq	.L18
 197 0022 712B     		cmp	r3, #113
 198 0024 25D0     		beq	.L19
 199 0026 4C2B     		cmp	r3, #76
 200 0028 42D0     		beq	.L20
 201              		.loc 1 209 0
 202 002a 56E0     		b	.L12
 203              	.L14:
 147:.\BLE_Interface.c ****             Advertising_LED_Write(LED_ON);
 204              		.loc 1 147 0
 205 002c 0020     		mov	r0, #0
 206 002e FFF7FEFF 		bl	CyBle_GappStartAdvertisement
 148:.\BLE_Interface.c ****             
 207              		.loc 1 148 0
 208 0032 0020     		mov	r0, #0
 209 0034 FFF7FEFF 		bl	Advertising_LED_Write
 151:.\BLE_Interface.c ****           break;
 210              		.loc 1 151 0
 211 0038 FFF7FEFF 		bl	BLE_StateInit
 152:.\BLE_Interface.c **** 
 212              		.loc 1 152 0
 213 003c 4DE0     		b	.L12
 214              	.L17:
 156:.\BLE_Interface.c ****         break;
 215              		.loc 1 156 0
 216 003e 0120     		mov	r0, #1
 217 0040 FFF7FEFF 		bl	Advertising_LED_Write
 157:.\BLE_Interface.c **** 
 218              		.loc 1 157 0
 219 0044 49E0     		b	.L12
 220              	.L16:
 160:.\BLE_Interface.c ****             {
 221              		.loc 1 160 0
 222 0046 264B     		ldr	r3, .L27
 223 0048 1B78     		ldrb	r3, [r3]
 224 004a 042B     		cmp	r3, #4
 225 004c 10D1     		bne	.L22
 165:.\BLE_Interface.c ****                 Hibernate_LED_Write(LED_ON);
 226              		.loc 1 165 0
 227 004e 0120     		mov	r0, #1
 228 0050 FFF7FEFF 		bl	Advertising_LED_Write
 166:.\BLE_Interface.c ****                 PWM_Stop();
 229              		.loc 1 166 0
 230 0054 0020     		mov	r0, #0
 231 0056 FFF7FEFF 		bl	Hibernate_LED_Write
 167:.\BLE_Interface.c ****                 Wakeup_SW_ClearInterrupt();
 232              		.loc 1 167 0
 233 005a FFF7FEFF 		bl	PWM_Stop
 168:.\BLE_Interface.c ****                 Wakeup_Interrupt_ClearPending();
 234              		.loc 1 168 0
 235 005e FFF7FEFF 		bl	Wakeup_SW_ClearInterrupt
ARM GAS  C:\Users\Gaurav\AppData\Local\Temp\ccfNPcVj.s 			page 9


 169:.\BLE_Interface.c ****                 Wakeup_Interrupt_Start();
 236              		.loc 1 169 0
 237 0062 FFF7FEFF 		bl	Wakeup_Interrupt_ClearPending
 170:.\BLE_Interface.c ****                 CySysPmHibernate();
 238              		.loc 1 170 0
 239 0066 FFF7FEFF 		bl	Wakeup_Interrupt_Start
 171:.\BLE_Interface.c ****             }
 240              		.loc 1 171 0
 241 006a FFF7FEFF 		bl	CySysPmHibernate
 173:.\BLE_Interface.c ****             
 242              		.loc 1 173 0
 243 006e 34E0     		b	.L12
 244              	.L22:
 245 0070 33E0     		b	.L12
 246              	.L19:
 176:.\BLE_Interface.c ****             {
 247              		.loc 1 176 0
 248 0072 3B68     		ldr	r3, [r7]
 249 0074 1B88     		ldrh	r3, [r3]
 250 0076 002B     		cmp	r3, #0
 251 0078 03D1     		bne	.L23
 179:.\BLE_Interface.c ****             }
 252              		.loc 1 179 0
 253 007a 1A4B     		ldr	r3, .L27+4
 254 007c 0322     		mov	r2, #3
 255 007e 1A70     		strb	r2, [r3]
 256 0080 15E0     		b	.L24
 257              	.L23:
 181:.\BLE_Interface.c ****             {
 258              		.loc 1 181 0
 259 0082 3B68     		ldr	r3, [r7]
 260 0084 1B88     		ldrh	r3, [r3]
 261 0086 012B     		cmp	r3, #1
 262 0088 11D1     		bne	.L24
 183:.\BLE_Interface.c ****                 if(connectionParamIndex != TOTAL_NUMBER_OF_CONNECTION_PARAMETERS)
 263              		.loc 1 183 0
 264 008a 174B     		ldr	r3, .L27+8
 265 008c 1B78     		ldrb	r3, [r3]
 266 008e 0133     		add	r3, r3, #1
 267 0090 DAB2     		uxtb	r2, r3
 268 0092 154B     		ldr	r3, .L27+8
 269 0094 1A70     		strb	r2, [r3]
 184:.\BLE_Interface.c ****                 {
 270              		.loc 1 184 0
 271 0096 144B     		ldr	r3, .L27+8
 272 0098 1B78     		ldrb	r3, [r3]
 273 009a 022B     		cmp	r3, #2
 274 009c 03D0     		beq	.L25
 186:.\BLE_Interface.c ****                 }
 275              		.loc 1 186 0
 276 009e 114B     		ldr	r3, .L27+4
 277 00a0 0122     		mov	r2, #1
 278 00a2 1A70     		strb	r2, [r3]
 279 00a4 03E0     		b	.L24
 280              	.L25:
 190:.\BLE_Interface.c ****                 }
 281              		.loc 1 190 0
ARM GAS  C:\Users\Gaurav\AppData\Local\Temp\ccfNPcVj.s 			page 10


 282 00a6 0F4B     		ldr	r3, .L27+4
 283 00a8 0422     		mov	r2, #4
 284 00aa 1A70     		strb	r2, [r3]
 193:.\BLE_Interface.c ****             
 285              		.loc 1 193 0
 286 00ac 15E0     		b	.L12
 287              	.L24:
 288 00ae 14E0     		b	.L12
 289              	.L20:
 196:.\BLE_Interface.c ****             {
 290              		.loc 1 196 0
 291 00b0 0C4B     		ldr	r3, .L27+4
 292 00b2 1B78     		ldrb	r3, [r3]
 293 00b4 002B     		cmp	r3, #0
 294 00b6 02D1     		bne	.L26
 198:.\BLE_Interface.c ****             }
 295              		.loc 1 198 0
 296 00b8 0A4B     		ldr	r3, .L27+4
 297 00ba 0122     		mov	r2, #1
 298 00bc 1A70     		strb	r2, [r3]
 299              	.L26:
 201:.\BLE_Interface.c ****         break;
 300              		.loc 1 201 0
 301 00be 7A68     		ldr	r2, [r7, #4]
 302 00c0 3B68     		ldr	r3, [r7]
 303 00c2 101C     		mov	r0, r2
 304 00c4 191C     		mov	r1, r3
 305 00c6 FFF7FEFF 		bl	MIDIEventHandler
 202:.\BLE_Interface.c ****             
 306              		.loc 1 202 0
 307 00ca 06E0     		b	.L12
 308              	.L18:
 205:.\BLE_Interface.c ****         break;
 309              		.loc 1 205 0
 310 00cc 7A68     		ldr	r2, [r7, #4]
 311 00ce 3B68     		ldr	r3, [r7]
 312 00d0 101C     		mov	r0, r2
 313 00d2 191C     		mov	r1, r3
 314 00d4 FFF7FEFF 		bl	MIDIEventHandler
 206:.\BLE_Interface.c **** 
 315              		.loc 1 206 0
 316 00d8 C046     		mov	r8, r8
 317              	.L12:
 210:.\BLE_Interface.c ****     }
 211:.\BLE_Interface.c **** }
 318              		.loc 1 211 0
 319 00da BD46     		mov	sp, r7
 320 00dc 02B0     		add	sp, sp, #8
 321              		@ sp needed
 322 00de 80BD     		pop	{r7, pc}
 323              	.L28:
 324              		.align	2
 325              	.L27:
 326 00e0 00000000 		.word	cyBle_state
 327 00e4 01000000 		.word	connectionParamState
 328 00e8 00000000 		.word	connectionParamIndex
 329              		.cfi_endproc
ARM GAS  C:\Users\Gaurav\AppData\Local\Temp\ccfNPcVj.s 			page 11


 330              	.LFE40:
 331              		.size	StackEventHandler, .-StackEventHandler
 332              		.section	.text.UpdateMidiInterfaceConnParam,"ax",%progbits
 333              		.align	2
 334              		.code	16
 335              		.thumb_func
 336              		.type	UpdateMidiInterfaceConnParam, %function
 337              	UpdateMidiInterfaceConnParam:
 338              	.LFB41:
 212:.\BLE_Interface.c **** 
 213:.\BLE_Interface.c **** /*******************************************************************************
 214:.\BLE_Interface.c **** * Function Name: UpdateMidiInterfaceConnParam
 215:.\BLE_Interface.c **** ********************************************************************************
 216:.\BLE_Interface.c **** *
 217:.\BLE_Interface.c **** * Summary:
 218:.\BLE_Interface.c **** *  This is an event callback function to receive events from the BLE Component.
 219:.\BLE_Interface.c **** *
 220:.\BLE_Interface.c **** * Parameters:
 221:.\BLE_Interface.c **** *  uint8 event:       Event from the CYBLE component
 222:.\BLE_Interface.c **** *  void* eventParams: A structure instance for corresponding event type. The
 223:.\BLE_Interface.c **** *                     list of event structure is described in the component
 224:.\BLE_Interface.c **** *                     datasheet.
 225:.\BLE_Interface.c **** *
 226:.\BLE_Interface.c **** * Return:
 227:.\BLE_Interface.c **** *  None
 228:.\BLE_Interface.c **** *
 229:.\BLE_Interface.c **** *******************************************************************************/
 230:.\BLE_Interface.c **** static void UpdateMidiInterfaceConnParam(BLE_CONNECTION_PARAM_INDEX connectionParamIndex)
 231:.\BLE_Interface.c **** {
 339              		.loc 1 231 0
 340              		.cfi_startproc
 341 0000 90B5     		push	{r4, r7, lr}
 342              		.cfi_def_cfa_offset 12
 343              		.cfi_offset 4, -12
 344              		.cfi_offset 7, -8
 345              		.cfi_offset 14, -4
 346 0002 85B0     		sub	sp, sp, #20
 347              		.cfi_def_cfa_offset 32
 348 0004 00AF     		add	r7, sp, #0
 349              		.cfi_def_cfa_register 7
 350 0006 021C     		mov	r2, r0
 351 0008 FB1D     		add	r3, r7, #7
 352 000a 1A70     		strb	r2, [r3]
 232:.\BLE_Interface.c ****     if(connectionParamState == CONNECTION_PARAMETER_UPDATE_REQUIRED_STATE && CyBle_GetState() == CY
 353              		.loc 1 232 0
 354 000c 124B     		ldr	r3, .L32
 355 000e 1B78     		ldrb	r3, [r3]
 356 0010 012B     		cmp	r3, #1
 357 0012 1ED1     		bne	.L29
 358              		.loc 1 232 0 is_stmt 0 discriminator 1
 359 0014 114B     		ldr	r3, .L32+4
 360 0016 1B78     		ldrb	r3, [r3]
 361 0018 022B     		cmp	r3, #2
 362 001a 1AD1     		bne	.L29
 363              	.LBB2:
 233:.\BLE_Interface.c ****     {
 234:.\BLE_Interface.c ****         CYBLE_API_RESULT_T conResult;
ARM GAS  C:\Users\Gaurav\AppData\Local\Temp\ccfNPcVj.s 			page 12


 235:.\BLE_Interface.c **** 
 236:.\BLE_Interface.c ****         conResult = CyBle_L2capLeConnectionParamUpdateRequest(cyBle_connHandle.bdHandle, 
 364              		.loc 1 236 0 is_stmt 1
 365 001c 104B     		ldr	r3, .L32+8
 366 001e 1978     		ldrb	r1, [r3]
 237:.\BLE_Interface.c ****                                                             &midiConnectionParam[connectionParamInd
 367              		.loc 1 237 0
 368 0020 FB1D     		add	r3, r7, #7
 369 0022 1B78     		ldrb	r3, [r3]
 236:.\BLE_Interface.c ****                                                             &midiConnectionParam[connectionParamInd
 370              		.loc 1 236 0
 371 0024 DA00     		lsl	r2, r3, #3
 372 0026 0F4B     		ldr	r3, .L32+12
 373 0028 D318     		add	r3, r2, r3
 374 002a 0E22     		mov	r2, #14
 375 002c BC18     		add	r4, r7, r2
 376 002e 081C     		mov	r0, r1
 377 0030 191C     		mov	r1, r3
 378 0032 FFF7FEFF 		bl	CyBle_L2capLeConnectionParamUpdateRequest
 379 0036 031C     		mov	r3, r0
 380 0038 2380     		strh	r3, [r4]
 238:.\BLE_Interface.c ****         
 239:.\BLE_Interface.c ****         if(conResult != CYBLE_ERROR_OK)
 381              		.loc 1 239 0
 382 003a 0E23     		mov	r3, #14
 383 003c FB18     		add	r3, r7, r3
 384 003e 1B88     		ldrh	r3, [r3]
 385 0040 002B     		cmp	r3, #0
 386 0042 03D0     		beq	.L31
 240:.\BLE_Interface.c ****         {
 241:.\BLE_Interface.c ****             connectionParamState = CONNECTION_PARAMETER_SENT_STATE;
 387              		.loc 1 241 0
 388 0044 044B     		ldr	r3, .L32
 389 0046 0222     		mov	r2, #2
 390 0048 1A70     		strb	r2, [r3]
 391 004a 02E0     		b	.L29
 392              	.L31:
 242:.\BLE_Interface.c ****         }
 243:.\BLE_Interface.c ****         else
 244:.\BLE_Interface.c ****         {
 245:.\BLE_Interface.c ****             connectionParamState = CONNECTION_PARAMETER_FAILURE_STATE;
 393              		.loc 1 245 0
 394 004c 024B     		ldr	r3, .L32
 395 004e 0522     		mov	r2, #5
 396 0050 1A70     		strb	r2, [r3]
 397              	.L29:
 398              	.LBE2:
 246:.\BLE_Interface.c ****         }
 247:.\BLE_Interface.c ****     }
 248:.\BLE_Interface.c **** }
 399              		.loc 1 248 0
 400 0052 BD46     		mov	sp, r7
 401 0054 05B0     		add	sp, sp, #20
 402              		@ sp needed
 403 0056 90BD     		pop	{r4, r7, pc}
 404              	.L33:
 405              		.align	2
ARM GAS  C:\Users\Gaurav\AppData\Local\Temp\ccfNPcVj.s 			page 13


 406              	.L32:
 407 0058 01000000 		.word	connectionParamState
 408 005c 00000000 		.word	cyBle_state
 409 0060 00000000 		.word	cyBle_connHandle
 410 0064 00000000 		.word	midiConnectionParam
 411              		.cfi_endproc
 412              	.LFE41:
 413              		.size	UpdateMidiInterfaceConnParam, .-UpdateMidiInterfaceConnParam
 414              		.text
 415              	.Letext0:
 416              		.file 2 "Generated_Source\\PSoC4/Cytypes.h"
 417              		.file 3 "./BLE_Interface.h"
 418              		.file 4 "Generated_Source\\PSoC4/BLE_Stack.h"
 419              		.file 5 "Generated_Source\\PSoC4/BLE_StackGap.h"
 420              		.file 6 "Generated_Source\\PSoC4/BLE_StackGatt.h"
 421              		.file 7 "Generated_Source\\PSoC4/BLE_eventHandler.h"