ARM GAS  C:\Users\Gaurav\AppData\Local\Temp\cca8P3k4.s 			page 1


   1              		.cpu cortex-m0
   2              		.fpu softvfp
   3              		.eabi_attribute 20, 1
   4              		.eabi_attribute 21, 1
   5              		.eabi_attribute 23, 3
   6              		.eabi_attribute 24, 1
   7              		.eabi_attribute 25, 1
   8              		.eabi_attribute 26, 1
   9              		.eabi_attribute 30, 6
  10              		.eabi_attribute 34, 0
  11              		.eabi_attribute 18, 4
  12              		.code	16
  13              		.file	"main.c"
  14              		.text
  15              	.Ltext0:
  16              		.cfi_sections	.debug_frame
  17              		.global	color
  18              		.data
  19              		.type	color, %object
  20              		.size	color, 1
  21              	color:
  22 0000 55       		.byte	85
  23              		.section	.text.main,"ax",%progbits
  24              		.align	2
  25              		.global	main
  26              		.code	16
  27              		.thumb_func
  28              		.type	main, %function
  29              	main:
  30              	.LFB37:
  31              		.file 1 ".\\main.c"
   1:.\main.c      **** /*******************************************************************************
   2:.\main.c      **** * File Name: main.c
   3:.\main.c      **** *
   4:.\main.c      **** * Version: 1.0
   5:.\main.c      **** *
   6:.\main.c      **** * Description:
   7:.\main.c      **** *  This is source code for the PSoC 4 BLE MIDI for iOS/Mac example project.
   8:.\main.c      **** *
   9:.\main.c      **** * Note:
  10:.\main.c      **** *
  11:.\main.c      **** * Owners:
  12:.\main.c      **** *  KRIS@CYPRESS.COM
  13:.\main.c      **** *
  14:.\main.c      **** * Related Document:
  15:.\main.c      **** *
  16:.\main.c      **** * Hardware Dependency:
  17:.\main.c      **** *  1. PSoC 4 BLE device
  18:.\main.c      **** *  2. CY8CKIT-042 BLE Pioneer Kit
  19:.\main.c      **** *
  20:.\main.c      **** * Code Tested With:
  21:.\main.c      **** *  1. PSoC Creator 3.1 CP1
  22:.\main.c      **** *  2. ARM CM3-GCC
  23:.\main.c      **** *
  24:.\main.c      **** ********************************************************************************
  25:.\main.c      **** * Copyright 2015, Cypress Semiconductor Corporation.  All rights reserved.
  26:.\main.c      **** * You may use this file only in accordance with the license, terms, conditions,
ARM GAS  C:\Users\Gaurav\AppData\Local\Temp\cca8P3k4.s 			page 2


  27:.\main.c      **** * disclaimers, and limitations in the end user license agreement accompanying
  28:.\main.c      **** * the software package with which this file was provided.
  29:.\main.c      **** *******************************************************************************/
  30:.\main.c      **** 
  31:.\main.c      **** #include <BLE_Interface.h>
  32:.\main.c      **** #include <Configuration.h>
  33:.\main.c      **** #include <Init.h>
  34:.\main.c      **** #include <Logger.h>
  35:.\main.c      **** #include <MIDI.h>
  36:.\main.c      **** #include <Project.h>
  37:.\main.c      **** #include <UI.h>
  38:.\main.c      **** 
  39:.\main.c      **** #include <I2Cinit.h>
  40:.\main.c      **** #include <I2C_1_I2C.h>
  41:.\main.c      **** #include <stdio.h>
  42:.\main.c      **** 
  43:.\main.c      **** /*******************************************************************************
  44:.\main.c      **** * Function Name: main
  45:.\main.c      **** ********************************************************************************
  46:.\main.c      **** *
  47:.\main.c      **** * Summary:
  48:.\main.c      **** *  Main function.
  49:.\main.c      **** *
  50:.\main.c      **** * Parameters:
  51:.\main.c      **** *  None
  52:.\main.c      **** *
  53:.\main.c      **** * Return:
  54:.\main.c      **** *  None
  55:.\main.c      **** *
  56:.\main.c      **** *******************************************************************************/
  57:.\main.c      **** // This is function declaration 
  58:.\main.c      **** 
  59:.\main.c      **** void write_function(void);
  60:.\main.c      **** char color_map(uint16 x, uint16 y, uint16 z);
  61:.\main.c      **** volatile char color = 'U';   // Output color from sensor
  62:.\main.c      **** 
  63:.\main.c      **** int main()
  64:.\main.c      **** {
  32              		.loc 1 64 0
  33              		.cfi_startproc
  34 0000 90B5     		push	{r4, r7, lr}
  35              		.cfi_def_cfa_offset 12
  36              		.cfi_offset 4, -12
  37              		.cfi_offset 7, -8
  38              		.cfi_offset 14, -4
  39 0002 87B0     		sub	sp, sp, #28
  40              		.cfi_def_cfa_offset 40
  41 0004 00AF     		add	r7, sp, #0
  42              		.cfi_def_cfa_register 7
  65:.\main.c      ****     uint8 status;
  66:.\main.c      ****     uint8 readbuffer[8];   // All colors starting from Z Y IR1 X data
  67:.\main.c      ****     volatile uint16 x, y, z; 
  68:.\main.c      ****    
  69:.\main.c      ****     status = InitializeSystem();
  43              		.loc 1 69 0
  44 0006 1723     		mov	r3, #23
  45 0008 FC18     		add	r4, r7, r3
ARM GAS  C:\Users\Gaurav\AppData\Local\Temp\cca8P3k4.s 			page 3


  46 000a FFF7FEFF 		bl	InitializeSystem
  47 000e 031C     		mov	r3, r0
  48 0010 2370     		strb	r3, [r4]
  70:.\main.c      ****     
  71:.\main.c      ****     if(status == 0)
  49              		.loc 1 71 0
  50 0012 1723     		mov	r3, #23
  51 0014 FB18     		add	r3, r7, r3
  52 0016 1B78     		ldrb	r3, [r3]
  53 0018 002B     		cmp	r3, #0
  54 001a 02D1     		bne	.L2
  72:.\main.c      ****     {
  73:.\main.c      ****        CYASSERT(0);    /* Something went wrong with BLE initialization, check */
  55              		.loc 1 73 0 discriminator 1
  56 001c 0020     		mov	r0, #0
  57 001e FFF7FEFF 		bl	CyHalt
  58              	.L2:
  74:.\main.c      ****     }
  75:.\main.c      ****     
  76:.\main.c      ****     write_function();
  59              		.loc 1 76 0
  60 0022 FFF7FEFF 		bl	write_function
  61              	.L6:
  62              	.LBB2:
  77:.\main.c      **** 
  78:.\main.c      ****     while(1)
  79:.\main.c      ****     {
  80:.\main.c      ****         
  81:.\main.c      ****         uint8 I2CreadBuffer[0x01] = {0x94}; //Location from which z data is to be read 
  63              		.loc 1 81 0
  64 0026 3B1D     		add	r3, r7, #4
  65 0028 9422     		mov	r2, #148
  66 002a 1A70     		strb	r2, [r3]
  82:.\main.c      ****      
  83:.\main.c      ****         uint16 uiChangeStatus;
  84:.\main.c      ****         
  85:.\main.c      ****         BLE_Run();
  67              		.loc 1 85 0
  68 002c FFF7FEFF 		bl	BLE_Run
  86:.\main.c      ****         
  87:.\main.c      ****         I2C_1_I2CMasterWriteBuf(I2C_Slave_Address,(uint8 *) I2CreadBuffer, sizeof(I2CreadBuffer), I
  69              		.loc 1 87 0
  70 0030 3B1D     		add	r3, r7, #4
  71 0032 3920     		mov	r0, #57
  72 0034 191C     		mov	r1, r3
  73 0036 0122     		mov	r2, #1
  74 0038 0023     		mov	r3, #0
  75 003a FFF7FEFF 		bl	I2C_1_I2CMasterWriteBuf
  88:.\main.c      ****         
  89:.\main.c      ****         while(!(I2C_1_I2CMasterStatus() & I2C_1_I2C_MSTAT_WR_CMPLT)); //Wait till the master comple
  76              		.loc 1 89 0
  77 003e C046     		mov	r8, r8
  78              	.L3:
  79              		.loc 1 89 0 is_stmt 0 discriminator 1
  80 0040 FFF7FEFF 		bl	I2C_1_I2CMasterStatus
  81 0044 021C     		mov	r2, r0
  82 0046 0223     		mov	r3, #2
ARM GAS  C:\Users\Gaurav\AppData\Local\Temp\cca8P3k4.s 			page 4


  83 0048 1340     		and	r3, r2
  84 004a F9D0     		beq	.L3
  90:.\main.c      ****         I2C_1_I2CMasterClearStatus(); //Clear I2C master status
  85              		.loc 1 90 0 is_stmt 1
  86 004c FFF7FEFF 		bl	I2C_1_I2CMasterClearStatus
  91:.\main.c      ****         
  92:.\main.c      ****          I2C_1_I2CMasterReadBuf(I2C_Slave_Address,(uint8 *) readbuffer, sizeof(readbuffer), I2C_1_I
  87              		.loc 1 92 0
  88 0050 0C23     		mov	r3, #12
  89 0052 FB18     		add	r3, r7, r3
  90 0054 3920     		mov	r0, #57
  91 0056 191C     		mov	r1, r3
  92 0058 0822     		mov	r2, #8
  93 005a 0023     		mov	r3, #0
  94 005c FFF7FEFF 		bl	I2C_1_I2CMasterReadBuf
  93:.\main.c      ****        
  94:.\main.c      ****        
  95:.\main.c      ****         while(!(I2C_1_I2CMasterStatus() & I2C_1_I2C_MSTAT_RD_CMPLT)); //Wait till the master comple
  95              		.loc 1 95 0
  96 0060 C046     		mov	r8, r8
  97              	.L4:
  98              		.loc 1 95 0 is_stmt 0 discriminator 1
  99 0062 FFF7FEFF 		bl	I2C_1_I2CMasterStatus
 100 0066 021C     		mov	r2, r0
 101 0068 0123     		mov	r3, #1
 102 006a 1340     		and	r3, r2
 103 006c F9D0     		beq	.L4
  96:.\main.c      ****         I2C_1_I2CMasterClearStatus(); //Clear I2C master status
 104              		.loc 1 96 0 is_stmt 1
 105 006e FFF7FEFF 		bl	I2C_1_I2CMasterClearStatus
  97:.\main.c      ****         
  98:.\main.c      ****         z = readbuffer[0] | (readbuffer[1] << 8) ;
 106              		.loc 1 98 0
 107 0072 0C23     		mov	r3, #12
 108 0074 FB18     		add	r3, r7, r3
 109 0076 1B78     		ldrb	r3, [r3]
 110 0078 9AB2     		uxth	r2, r3
 111 007a 0C23     		mov	r3, #12
 112 007c FB18     		add	r3, r7, r3
 113 007e 5B78     		ldrb	r3, [r3, #1]
 114 0080 1B02     		lsl	r3, r3, #8
 115 0082 9BB2     		uxth	r3, r3
 116 0084 1343     		orr	r3, r2
 117 0086 9BB2     		uxth	r3, r3
 118 0088 9AB2     		uxth	r2, r3
 119 008a BB1D     		add	r3, r7, #6
 120 008c 1A80     		strh	r2, [r3]
  99:.\main.c      ****         y = readbuffer[2] | (readbuffer[3] << 8) ;
 121              		.loc 1 99 0
 122 008e 0C23     		mov	r3, #12
 123 0090 FB18     		add	r3, r7, r3
 124 0092 9B78     		ldrb	r3, [r3, #2]
 125 0094 9AB2     		uxth	r2, r3
 126 0096 0C23     		mov	r3, #12
 127 0098 FB18     		add	r3, r7, r3
 128 009a DB78     		ldrb	r3, [r3, #3]
 129 009c 1B02     		lsl	r3, r3, #8
ARM GAS  C:\Users\Gaurav\AppData\Local\Temp\cca8P3k4.s 			page 5


 130 009e 9BB2     		uxth	r3, r3
 131 00a0 1343     		orr	r3, r2
 132 00a2 9BB2     		uxth	r3, r3
 133 00a4 9AB2     		uxth	r2, r3
 134 00a6 0823     		mov	r3, #8
 135 00a8 FB18     		add	r3, r7, r3
 136 00aa 1A80     		strh	r2, [r3]
 100:.\main.c      ****         x = readbuffer[6] | (readbuffer[7] << 8) ;
 137              		.loc 1 100 0
 138 00ac 0C23     		mov	r3, #12
 139 00ae FB18     		add	r3, r7, r3
 140 00b0 9B79     		ldrb	r3, [r3, #6]
 141 00b2 9AB2     		uxth	r2, r3
 142 00b4 0C23     		mov	r3, #12
 143 00b6 FB18     		add	r3, r7, r3
 144 00b8 DB79     		ldrb	r3, [r3, #7]
 145 00ba 1B02     		lsl	r3, r3, #8
 146 00bc 9BB2     		uxth	r3, r3
 147 00be 1343     		orr	r3, r2
 148 00c0 9BB2     		uxth	r3, r3
 149 00c2 9AB2     		uxth	r2, r3
 150 00c4 0A23     		mov	r3, #10
 151 00c6 FB18     		add	r3, r7, r3
 152 00c8 1A80     		strh	r2, [r3]
 101:.\main.c      ****        
 102:.\main.c      ****          color = color_map(x,y,z);
 153              		.loc 1 102 0
 154 00ca 0A23     		mov	r3, #10
 155 00cc FB18     		add	r3, r7, r3
 156 00ce 1B88     		ldrh	r3, [r3]
 157 00d0 99B2     		uxth	r1, r3
 158 00d2 0823     		mov	r3, #8
 159 00d4 FB18     		add	r3, r7, r3
 160 00d6 1B88     		ldrh	r3, [r3]
 161 00d8 9AB2     		uxth	r2, r3
 162 00da BB1D     		add	r3, r7, #6
 163 00dc 1B88     		ldrh	r3, [r3]
 164 00de 9BB2     		uxth	r3, r3
 165 00e0 081C     		mov	r0, r1
 166 00e2 111C     		mov	r1, r2
 167 00e4 1A1C     		mov	r2, r3
 168 00e6 FFF7FEFF 		bl	color_map
 169 00ea 031C     		mov	r3, r0
 170 00ec 1A1C     		mov	r2, r3
 171 00ee 0C4B     		ldr	r3, .L7
 172 00f0 1A70     		strb	r2, [r3]
 103:.\main.c      ****         
 104:.\main.c      ****         uiChangeStatus = UIInput_Run();
 173              		.loc 1 104 0
 174 00f2 1423     		mov	r3, #20
 175 00f4 FC18     		add	r4, r7, r3
 176 00f6 FFF7FEFF 		bl	UIInput_Run
 177 00fa 031C     		mov	r3, r0
 178 00fc 2380     		strh	r3, [r4]
 105:.\main.c      ****         
 106:.\main.c      ****         Midi_Run(uiChangeStatus);
 179              		.loc 1 106 0
ARM GAS  C:\Users\Gaurav\AppData\Local\Temp\cca8P3k4.s 			page 6


 180 00fe 1423     		mov	r3, #20
 181 0100 FB18     		add	r3, r7, r3
 182 0102 1B88     		ldrh	r3, [r3]
 183 0104 181C     		mov	r0, r3
 184 0106 FFF7FEFF 		bl	Midi_Run
 107:.\main.c      ****         
 108:.\main.c      ****         UIOutput_Run();  
 185              		.loc 1 108 0
 186 010a FFF7FEFF 		bl	UIOutput_Run
 109:.\main.c      ****         
 110:.\main.c      ****     
 111:.\main.c      ****         if(cyBle_pendingFlashWrite != 0u)
 187              		.loc 1 111 0
 188 010e 054B     		ldr	r3, .L7+4
 189 0110 1B78     		ldrb	r3, [r3]
 190 0112 002B     		cmp	r3, #0
 191 0114 02D0     		beq	.L5
 112:.\main.c      ****         {
 113:.\main.c      ****             /* Store bounding data to flash only when all debug information has been sent */
 114:.\main.c      ****             CyBle_StoreBondingData(0u);
 192              		.loc 1 114 0
 193 0116 0020     		mov	r0, #0
 194 0118 FFF7FEFF 		bl	CyBle_StoreBondingData
 195              	.L5:
 196              	.LBE2:
 115:.\main.c      ****         }  
 116:.\main.c      ****             
 117:.\main.c      ****          
 118:.\main.c      ****         
 119:.\main.c      ****         
 120:.\main.c      ****     }
 197              		.loc 1 120 0
 198 011c 83E7     		b	.L6
 199              	.L8:
 200 011e C046     		.align	2
 201              	.L7:
 202 0120 00000000 		.word	color
 203 0124 00000000 		.word	cyBle_pendingFlashWrite
 204              		.cfi_endproc
 205              	.LFE37:
 206              		.size	main, .-main
 207              		.section	.text.write_function,"ax",%progbits
 208              		.align	2
 209              		.global	write_function
 210              		.code	16
 211              		.thumb_func
 212              		.type	write_function, %function
 213              	write_function:
 214              	.LFB38:
 121:.\main.c      **** }
 122:.\main.c      **** 
 123:.\main.c      **** 
 124:.\main.c      **** void write_function(void)
 125:.\main.c      **** {
 215              		.loc 1 125 0
 216              		.cfi_startproc
 217 0000 80B5     		push	{r7, lr}
ARM GAS  C:\Users\Gaurav\AppData\Local\Temp\cca8P3k4.s 			page 7


 218              		.cfi_def_cfa_offset 8
 219              		.cfi_offset 7, -8
 220              		.cfi_offset 14, -4
 221 0002 00AF     		add	r7, sp, #0
 222              		.cfi_def_cfa_register 7
 126:.\main.c      ****        static  uint8 buffer[BUFFER_SIZE];
 127:.\main.c      ****         
 128:.\main.c      ****          /* Turn off sensor */
 129:.\main.c      ****      buffer[0] = 0x80;   // Address of Enable 
 223              		.loc 1 129 0
 224 0004 3F4B     		ldr	r3, .L15
 225 0006 8022     		mov	r2, #128
 226 0008 1A70     		strb	r2, [r3]
 130:.\main.c      ****      buffer[1] = 0x00;   // Pon =0  & Aeon = 0 to turn off the sensor and ALS Enable 
 227              		.loc 1 130 0
 228 000a 3E4B     		ldr	r3, .L15
 229 000c 0022     		mov	r2, #0
 230 000e 5A70     		strb	r2, [r3, #1]
 131:.\main.c      ****    
 132:.\main.c      ****     
 133:.\main.c      ****     I2C_1_I2CMasterWriteBuf(I2C_Slave_Address,(uint8 *)buffer, BUFFER_SIZE, I2C_1_I2C_MODE_COMPLETE
 231              		.loc 1 133 0
 232 0010 3C4B     		ldr	r3, .L15
 233 0012 3920     		mov	r0, #57
 234 0014 191C     		mov	r1, r3
 235 0016 0222     		mov	r2, #2
 236 0018 0023     		mov	r3, #0
 237 001a FFF7FEFF 		bl	I2C_1_I2CMasterWriteBuf
 134:.\main.c      ****     while(!(I2C_1_I2CMasterStatus() & I2C_1_I2C_MSTAT_WR_CMPLT)); //Wait till the master completes 
 238              		.loc 1 134 0
 239 001e C046     		mov	r8, r8
 240              	.L10:
 241              		.loc 1 134 0 is_stmt 0 discriminator 1
 242 0020 FFF7FEFF 		bl	I2C_1_I2CMasterStatus
 243 0024 021C     		mov	r2, r0
 244 0026 0223     		mov	r3, #2
 245 0028 1340     		and	r3, r2
 246 002a F9D0     		beq	.L10
 135:.\main.c      ****     I2C_1_I2CMasterClearStatus(); //Clear I2C master status
 247              		.loc 1 135 0 is_stmt 1
 248 002c FFF7FEFF 		bl	I2C_1_I2CMasterClearStatus
 136:.\main.c      ****     
 137:.\main.c      ****     CyDelay(5);
 249              		.loc 1 137 0
 250 0030 0520     		mov	r0, #5
 251 0032 FFF7FEFF 		bl	CyDelay
 138:.\main.c      ****     
 139:.\main.c      ****     //Set ALS integration time
 140:.\main.c      ****     buffer[0] = 0x81;   // Address of ATIME register 
 252              		.loc 1 140 0
 253 0036 334B     		ldr	r3, .L15
 254 0038 8122     		mov	r2, #129
 255 003a 1A70     		strb	r2, [r3]
 141:.\main.c      ****     buffer[1] = 0x40;   // Ensures full ALS range (0x40 -->  181ms, 65535 max value)
 256              		.loc 1 141 0
 257 003c 314B     		ldr	r3, .L15
 258 003e 4022     		mov	r2, #64
ARM GAS  C:\Users\Gaurav\AppData\Local\Temp\cca8P3k4.s 			page 8


 259 0040 5A70     		strb	r2, [r3, #1]
 142:.\main.c      ****     
 143:.\main.c      ****     I2C_1_I2CMasterWriteBuf(I2C_Slave_Address,(uint8 *)buffer, BUFFER_SIZE, I2C_1_I2C_MODE_COMPLETE
 260              		.loc 1 143 0
 261 0042 304B     		ldr	r3, .L15
 262 0044 3920     		mov	r0, #57
 263 0046 191C     		mov	r1, r3
 264 0048 0222     		mov	r2, #2
 265 004a 0023     		mov	r3, #0
 266 004c FFF7FEFF 		bl	I2C_1_I2CMasterWriteBuf
 144:.\main.c      ****     while(!(I2C_1_I2CMasterStatus() & I2C_1_I2C_MSTAT_WR_CMPLT)); //Wait till the master completes 
 267              		.loc 1 144 0
 268 0050 C046     		mov	r8, r8
 269              	.L11:
 270              		.loc 1 144 0 is_stmt 0 discriminator 1
 271 0052 FFF7FEFF 		bl	I2C_1_I2CMasterStatus
 272 0056 021C     		mov	r2, r0
 273 0058 0223     		mov	r3, #2
 274 005a 1340     		and	r3, r2
 275 005c F9D0     		beq	.L11
 145:.\main.c      ****     I2C_1_I2CMasterClearStatus(); //Clear I2C master status
 276              		.loc 1 145 0 is_stmt 1
 277 005e FFF7FEFF 		bl	I2C_1_I2CMasterClearStatus
 146:.\main.c      ****     
 147:.\main.c      ****     CyDelay(5);
 278              		.loc 1 147 0
 279 0062 0520     		mov	r0, #5
 280 0064 FFF7FEFF 		bl	CyDelay
 148:.\main.c      ****     
 149:.\main.c      ****     
 150:.\main.c      ****     //Set ADC gain
 151:.\main.c      ****     buffer[0] = 0x90;   // Address of CFG1 Register
 281              		.loc 1 151 0
 282 0068 264B     		ldr	r3, .L15
 283 006a 9022     		mov	r2, #144
 284 006c 1A70     		strb	r2, [r3]
 152:.\main.c      ****     buffer[1] = 0x03;   // Max gain (64x)
 285              		.loc 1 152 0
 286 006e 254B     		ldr	r3, .L15
 287 0070 0322     		mov	r2, #3
 288 0072 5A70     		strb	r2, [r3, #1]
 153:.\main.c      ****     
 154:.\main.c      ****     I2C_1_I2CMasterWriteBuf(I2C_Slave_Address,(uint8 *)buffer, BUFFER_SIZE, I2C_1_I2C_MODE_COMPLETE
 289              		.loc 1 154 0
 290 0074 234B     		ldr	r3, .L15
 291 0076 3920     		mov	r0, #57
 292 0078 191C     		mov	r1, r3
 293 007a 0222     		mov	r2, #2
 294 007c 0023     		mov	r3, #0
 295 007e FFF7FEFF 		bl	I2C_1_I2CMasterWriteBuf
 155:.\main.c      ****     while(!(I2C_1_I2CMasterStatus() & I2C_1_I2C_MSTAT_WR_CMPLT)); //Wait till the master completes 
 296              		.loc 1 155 0
 297 0082 C046     		mov	r8, r8
 298              	.L12:
 299              		.loc 1 155 0 is_stmt 0 discriminator 1
 300 0084 FFF7FEFF 		bl	I2C_1_I2CMasterStatus
 301 0088 021C     		mov	r2, r0
ARM GAS  C:\Users\Gaurav\AppData\Local\Temp\cca8P3k4.s 			page 9


 302 008a 0223     		mov	r3, #2
 303 008c 1340     		and	r3, r2
 304 008e F9D0     		beq	.L12
 156:.\main.c      ****     I2C_1_I2CMasterClearStatus(); //Clear I2C master status
 305              		.loc 1 156 0 is_stmt 1
 306 0090 FFF7FEFF 		bl	I2C_1_I2CMasterClearStatus
 157:.\main.c      ****     
 158:.\main.c      ****     CyDelay(5);
 307              		.loc 1 158 0
 308 0094 0520     		mov	r0, #5
 309 0096 FFF7FEFF 		bl	CyDelay
 159:.\main.c      ****     
 160:.\main.c      ****     //Turn power on but wait with enabling ALS
 161:.\main.c      ****     buffer[0] = 0x80;   // Address of ENABLE register 
 310              		.loc 1 161 0
 311 009a 1A4B     		ldr	r3, .L15
 312 009c 8022     		mov	r2, #128
 313 009e 1A70     		strb	r2, [r3]
 162:.\main.c      ****     buffer[1] = 0x01;   // PON on , ALS off
 314              		.loc 1 162 0
 315 00a0 184B     		ldr	r3, .L15
 316 00a2 0122     		mov	r2, #1
 317 00a4 5A70     		strb	r2, [r3, #1]
 163:.\main.c      ****     
 164:.\main.c      ****     I2C_1_I2CMasterWriteBuf(I2C_Slave_Address,(uint8 *)buffer, BUFFER_SIZE, I2C_1_I2C_MODE_COMPLETE
 318              		.loc 1 164 0
 319 00a6 174B     		ldr	r3, .L15
 320 00a8 3920     		mov	r0, #57
 321 00aa 191C     		mov	r1, r3
 322 00ac 0222     		mov	r2, #2
 323 00ae 0023     		mov	r3, #0
 324 00b0 FFF7FEFF 		bl	I2C_1_I2CMasterWriteBuf
 165:.\main.c      ****     while(!(I2C_1_I2CMasterStatus() & I2C_1_I2C_MSTAT_WR_CMPLT)); //Wait till the master completes 
 325              		.loc 1 165 0
 326 00b4 C046     		mov	r8, r8
 327              	.L13:
 328              		.loc 1 165 0 is_stmt 0 discriminator 1
 329 00b6 FFF7FEFF 		bl	I2C_1_I2CMasterStatus
 330 00ba 021C     		mov	r2, r0
 331 00bc 0223     		mov	r3, #2
 332 00be 1340     		and	r3, r2
 333 00c0 F9D0     		beq	.L13
 166:.\main.c      ****     I2C_1_I2CMasterClearStatus(); //Clear I2C master status
 334              		.loc 1 166 0 is_stmt 1
 335 00c2 FFF7FEFF 		bl	I2C_1_I2CMasterClearStatus
 167:.\main.c      ****     CyDelay(5);
 336              		.loc 1 167 0
 337 00c6 0520     		mov	r0, #5
 338 00c8 FFF7FEFF 		bl	CyDelay
 168:.\main.c      ****     
 169:.\main.c      ****     //Enable ALS
 170:.\main.c      ****     buffer[0] = 0x80;   // Address of ENABLE register  
 339              		.loc 1 170 0
 340 00cc 0D4B     		ldr	r3, .L15
 341 00ce 8022     		mov	r2, #128
 342 00d0 1A70     		strb	r2, [r3]
 171:.\main.c      ****     buffer[1] = 0x03;   //PON, ALS on
ARM GAS  C:\Users\Gaurav\AppData\Local\Temp\cca8P3k4.s 			page 10


 343              		.loc 1 171 0
 344 00d2 0C4B     		ldr	r3, .L15
 345 00d4 0322     		mov	r2, #3
 346 00d6 5A70     		strb	r2, [r3, #1]
 172:.\main.c      ****     
 173:.\main.c      ****     I2C_1_I2CMasterWriteBuf(I2C_Slave_Address,(uint8 *)buffer, BUFFER_SIZE, I2C_1_I2C_MODE_COMPLETE
 347              		.loc 1 173 0
 348 00d8 0A4B     		ldr	r3, .L15
 349 00da 3920     		mov	r0, #57
 350 00dc 191C     		mov	r1, r3
 351 00de 0222     		mov	r2, #2
 352 00e0 0023     		mov	r3, #0
 353 00e2 FFF7FEFF 		bl	I2C_1_I2CMasterWriteBuf
 174:.\main.c      ****     while(!(I2C_1_I2CMasterStatus() & I2C_1_I2C_MSTAT_WR_CMPLT)); //Wait till the master completes 
 354              		.loc 1 174 0
 355 00e6 C046     		mov	r8, r8
 356              	.L14:
 357              		.loc 1 174 0 is_stmt 0 discriminator 1
 358 00e8 FFF7FEFF 		bl	I2C_1_I2CMasterStatus
 359 00ec 021C     		mov	r2, r0
 360 00ee 0223     		mov	r3, #2
 361 00f0 1340     		and	r3, r2
 362 00f2 F9D0     		beq	.L14
 175:.\main.c      ****     I2C_1_I2CMasterClearStatus(); //Clear I2C master status
 363              		.loc 1 175 0 is_stmt 1
 364 00f4 FFF7FEFF 		bl	I2C_1_I2CMasterClearStatus
 176:.\main.c      ****     CyDelay(5);
 365              		.loc 1 176 0
 366 00f8 0520     		mov	r0, #5
 367 00fa FFF7FEFF 		bl	CyDelay
 177:.\main.c      ****     
 178:.\main.c      **** 
 179:.\main.c      **** }
 368              		.loc 1 179 0
 369 00fe BD46     		mov	sp, r7
 370              		@ sp needed
 371 0100 80BD     		pop	{r7, pc}
 372              	.L16:
 373 0102 C046     		.align	2
 374              	.L15:
 375 0104 00000000 		.word	buffer.8459
 376              		.cfi_endproc
 377              	.LFE38:
 378              		.size	write_function, .-write_function
 379              		.section	.text.color_map,"ax",%progbits
 380              		.align	2
 381              		.global	color_map
 382              		.code	16
 383              		.thumb_func
 384              		.type	color_map, %function
 385              	color_map:
 386              	.LFB39:
 180:.\main.c      **** 
 181:.\main.c      **** char color_map(uint16 x, uint16 y, uint16 z)
 182:.\main.c      **** {
 387              		.loc 1 182 0
 388              		.cfi_startproc
ARM GAS  C:\Users\Gaurav\AppData\Local\Temp\cca8P3k4.s 			page 11


 389 0000 90B5     		push	{r4, r7, lr}
 390              		.cfi_def_cfa_offset 12
 391              		.cfi_offset 4, -12
 392              		.cfi_offset 7, -8
 393              		.cfi_offset 14, -4
 394 0002 83B0     		sub	sp, sp, #12
 395              		.cfi_def_cfa_offset 24
 396 0004 00AF     		add	r7, sp, #0
 397              		.cfi_def_cfa_register 7
 398 0006 041C     		mov	r4, r0
 399 0008 081C     		mov	r0, r1
 400 000a 111C     		mov	r1, r2
 401 000c BB1D     		add	r3, r7, #6
 402 000e 221C     		add	r2, r4, #0
 403 0010 1A80     		strh	r2, [r3]
 404 0012 3B1D     		add	r3, r7, #4
 405 0014 021C     		add	r2, r0, #0
 406 0016 1A80     		strh	r2, [r3]
 407 0018 BB1C     		add	r3, r7, #2
 408 001a 0A1C     		add	r2, r1, #0
 409 001c 1A80     		strh	r2, [r3]
 183:.\main.c      ****     if (((X_min_black <= x) && (x <= X_max_black))&&((Y_min_black <= y) && (y <= Y_max_black))&&((Z
 410              		.loc 1 183 0
 411 001e BB1D     		add	r3, r7, #6
 412 0020 1A88     		ldrh	r2, [r3]
 413 0022 8023     		mov	r3, #128
 414 0024 5B00     		lsl	r3, r3, #1
 415 0026 9A42     		cmp	r2, r3
 416 0028 0DD8     		bhi	.L18
 417              		.loc 1 183 0 is_stmt 0 discriminator 1
 418 002a 3B1D     		add	r3, r7, #4
 419 002c 1A88     		ldrh	r2, [r3]
 420 002e 8023     		mov	r3, #128
 421 0030 5B00     		lsl	r3, r3, #1
 422 0032 9A42     		cmp	r2, r3
 423 0034 07D8     		bhi	.L18
 424              		.loc 1 183 0 discriminator 2
 425 0036 BB1C     		add	r3, r7, #2
 426 0038 1A88     		ldrh	r2, [r3]
 427 003a 8023     		mov	r3, #128
 428 003c 5B00     		lsl	r3, r3, #1
 429 003e 9A42     		cmp	r2, r3
 430 0040 01D8     		bhi	.L18
 184:.\main.c      ****     {
 185:.\main.c      ****         return 'B';
 431              		.loc 1 185 0 is_stmt 1
 432 0042 4223     		mov	r3, #66
 433 0044 7FE0     		b	.L19
 434              	.L18:
 186:.\main.c      ****     }
 187:.\main.c      ****     else if (((X_min_white <= x) && (x <= X_max_white))&&((Y_min_white <= y) && (y <= Y_max_white))
 435              		.loc 1 187 0
 436 0046 BB1D     		add	r3, r7, #6
 437 0048 1A88     		ldrh	r2, [r3]
 438 004a C123     		mov	r3, #193
 439 004c DB00     		lsl	r3, r3, #3
 440 004e 9A42     		cmp	r2, r3
ARM GAS  C:\Users\Gaurav\AppData\Local\Temp\cca8P3k4.s 			page 12


 441 0050 1CD9     		bls	.L20
 442              		.loc 1 187 0 is_stmt 0 discriminator 1
 443 0052 BB1D     		add	r3, r7, #6
 444 0054 1B88     		ldrh	r3, [r3]
 445 0056 3E4A     		ldr	r2, .L24
 446 0058 9342     		cmp	r3, r2
 447 005a 17D8     		bhi	.L20
 448              		.loc 1 187 0 discriminator 2
 449 005c 3B1D     		add	r3, r7, #4
 450 005e 1A88     		ldrh	r2, [r3]
 451 0060 C123     		mov	r3, #193
 452 0062 DB00     		lsl	r3, r3, #3
 453 0064 9A42     		cmp	r2, r3
 454 0066 11D9     		bls	.L20
 455              		.loc 1 187 0 discriminator 3
 456 0068 3B1D     		add	r3, r7, #4
 457 006a 1B88     		ldrh	r3, [r3]
 458 006c 384A     		ldr	r2, .L24
 459 006e 9342     		cmp	r3, r2
 460 0070 0CD8     		bhi	.L20
 461              		.loc 1 187 0 discriminator 4
 462 0072 BB1C     		add	r3, r7, #2
 463 0074 1A88     		ldrh	r2, [r3]
 464 0076 8123     		mov	r3, #129
 465 0078 9B00     		lsl	r3, r3, #2
 466 007a 9A42     		cmp	r2, r3
 467 007c 06D9     		bls	.L20
 468              		.loc 1 187 0 discriminator 5
 469 007e BB1C     		add	r3, r7, #2
 470 0080 1B88     		ldrh	r3, [r3]
 471 0082 344A     		ldr	r2, .L24+4
 472 0084 9342     		cmp	r3, r2
 473 0086 01D8     		bhi	.L20
 188:.\main.c      ****     {
 189:.\main.c      ****         return 'W';    // White Color 
 474              		.loc 1 189 0 is_stmt 1
 475 0088 5723     		mov	r3, #87
 476 008a 5CE0     		b	.L19
 477              	.L20:
 190:.\main.c      ****     }
 191:.\main.c      ****     else if (((X_min_red <= x) && (x <= X_max_red))&&((Y_min_red <= y) && (y <= Y_max_red))&&((Z_mi
 478              		.loc 1 191 0
 479 008c BB1D     		add	r3, r7, #6
 480 008e 1A88     		ldrh	r2, [r3]
 481 0090 8C23     		mov	r3, #140
 482 0092 FF33     		add	r3, r3, #255
 483 0094 9A42     		cmp	r2, r3
 484 0096 15D9     		bls	.L21
 485              		.loc 1 191 0 is_stmt 0 discriminator 1
 486 0098 BB1D     		add	r3, r7, #6
 487 009a 1A88     		ldrh	r2, [r3]
 488 009c 8B23     		mov	r3, #139
 489 009e 9B00     		lsl	r3, r3, #2
 490 00a0 9A42     		cmp	r2, r3
 491 00a2 0FD8     		bhi	.L21
 492              		.loc 1 191 0 discriminator 2
 493 00a4 3B1D     		add	r3, r7, #4
ARM GAS  C:\Users\Gaurav\AppData\Local\Temp\cca8P3k4.s 			page 13


 494 00a6 1B88     		ldrh	r3, [r3]
 495 00a8 A32B     		cmp	r3, #163
 496 00aa 0BD9     		bls	.L21
 497              		.loc 1 191 0 discriminator 3
 498 00ac 3B1D     		add	r3, r7, #4
 499 00ae 1A88     		ldrh	r2, [r3]
 500 00b0 A223     		mov	r3, #162
 501 00b2 5B00     		lsl	r3, r3, #1
 502 00b4 9A42     		cmp	r2, r3
 503 00b6 05D8     		bhi	.L21
 504              		.loc 1 191 0 discriminator 4
 505 00b8 BB1C     		add	r3, r7, #2
 506 00ba 1B88     		ldrh	r3, [r3]
 507 00bc 402B     		cmp	r3, #64
 508 00be 01D8     		bhi	.L21
 192:.\main.c      ****     {
 193:.\main.c      ****         return 'R';   // Red Color 
 509              		.loc 1 193 0 is_stmt 1
 510 00c0 5223     		mov	r3, #82
 511 00c2 40E0     		b	.L19
 512              	.L21:
 194:.\main.c      ****     }
 195:.\main.c      ****     else if (((X_min_green <= x) && (x <= X_max_green))&&((Y_min_green <= y) && (y <= Y_max_green))
 513              		.loc 1 195 0
 514 00c4 BB1D     		add	r3, r7, #6
 515 00c6 1B88     		ldrh	r3, [r3]
 516 00c8 234A     		ldr	r2, .L24+8
 517 00ca 9342     		cmp	r3, r2
 518 00cc 1AD9     		bls	.L22
 519              		.loc 1 195 0 is_stmt 0 discriminator 1
 520 00ce BB1D     		add	r3, r7, #6
 521 00d0 1B88     		ldrh	r3, [r3]
 522 00d2 224A     		ldr	r2, .L24+12
 523 00d4 9342     		cmp	r3, r2
 524 00d6 15D8     		bhi	.L22
 525              		.loc 1 195 0 discriminator 2
 526 00d8 3B1D     		add	r3, r7, #4
 527 00da 1B88     		ldrh	r3, [r3]
 528 00dc 204A     		ldr	r2, .L24+16
 529 00de 9342     		cmp	r3, r2
 530 00e0 10D9     		bls	.L22
 531              		.loc 1 195 0 discriminator 3
 532 00e2 3B1D     		add	r3, r7, #4
 533 00e4 1B88     		ldrh	r3, [r3]
 534 00e6 1F4A     		ldr	r2, .L24+20
 535 00e8 9342     		cmp	r3, r2
 536 00ea 0BD8     		bhi	.L22
 537              		.loc 1 195 0 discriminator 4
 538 00ec BB1C     		add	r3, r7, #2
 539 00ee 1B88     		ldrh	r3, [r3]
 540 00f0 192B     		cmp	r3, #25
 541 00f2 07D9     		bls	.L22
 542              		.loc 1 195 0 discriminator 5
 543 00f4 BB1C     		add	r3, r7, #2
 544 00f6 1A88     		ldrh	r2, [r3]
 545 00f8 8023     		mov	r3, #128
 546 00fa 5B00     		lsl	r3, r3, #1
ARM GAS  C:\Users\Gaurav\AppData\Local\Temp\cca8P3k4.s 			page 14


 547 00fc 9A42     		cmp	r2, r3
 548 00fe 01D8     		bhi	.L22
 196:.\main.c      ****     {
 197:.\main.c      ****         return 'G';    // Green Color 
 549              		.loc 1 197 0 is_stmt 1
 550 0100 4723     		mov	r3, #71
 551 0102 20E0     		b	.L19
 552              	.L22:
 198:.\main.c      ****     }
 199:.\main.c      ****     else if (((X_min_blue <= x) && (x <= X_max_blue))&&((Y_min_blue <= y) && (y <= Y_max_blue))&&((
 553              		.loc 1 199 0
 554 0104 BB1D     		add	r3, r7, #6
 555 0106 1B88     		ldrh	r3, [r3]
 556 0108 174A     		ldr	r2, .L24+24
 557 010a 9342     		cmp	r3, r2
 558 010c 1AD9     		bls	.L23
 559              		.loc 1 199 0 is_stmt 0 discriminator 1
 560 010e BB1D     		add	r3, r7, #6
 561 0110 1B88     		ldrh	r3, [r3]
 562 0112 164A     		ldr	r2, .L24+28
 563 0114 9342     		cmp	r3, r2
 564 0116 15D8     		bhi	.L23
 565              		.loc 1 199 0 discriminator 2
 566 0118 3B1D     		add	r3, r7, #4
 567 011a 1B88     		ldrh	r3, [r3]
 568 011c 124A     		ldr	r2, .L24+24
 569 011e 9342     		cmp	r3, r2
 570 0120 10D9     		bls	.L23
 571              		.loc 1 199 0 discriminator 3
 572 0122 3B1D     		add	r3, r7, #4
 573 0124 1B88     		ldrh	r3, [r3]
 574 0126 124A     		ldr	r2, .L24+32
 575 0128 9342     		cmp	r3, r2
 576 012a 0BD8     		bhi	.L23
 577              		.loc 1 199 0 discriminator 4
 578 012c BB1C     		add	r3, r7, #2
 579 012e 1B88     		ldrh	r3, [r3]
 580 0130 104A     		ldr	r2, .L24+36
 581 0132 9342     		cmp	r3, r2
 582 0134 06D9     		bls	.L23
 583              		.loc 1 199 0 discriminator 5
 584 0136 BB1C     		add	r3, r7, #2
 585 0138 1B88     		ldrh	r3, [r3]
 586 013a 0F4A     		ldr	r2, .L24+40
 587 013c 9342     		cmp	r3, r2
 588 013e 01D8     		bhi	.L23
 200:.\main.c      ****     {
 201:.\main.c      ****         return 'b';   // Blue Color 
 589              		.loc 1 201 0 is_stmt 1
 590 0140 6223     		mov	r3, #98
 591 0142 00E0     		b	.L19
 592              	.L23:
 202:.\main.c      ****     }
 203:.\main.c      ****     else return 'U';   // unknown color 
 593              		.loc 1 203 0
 594 0144 5523     		mov	r3, #85
 595              	.L19:
ARM GAS  C:\Users\Gaurav\AppData\Local\Temp\cca8P3k4.s 			page 15


 204:.\main.c      **** }
 596              		.loc 1 204 0
 597 0146 181C     		mov	r0, r3
 598 0148 BD46     		mov	sp, r7
 599 014a 03B0     		add	sp, sp, #12
 600              		@ sp needed
 601 014c 90BD     		pop	{r4, r7, pc}
 602              	.L25:
 603 014e C046     		.align	2
 604              	.L24:
 605 0150 99070000 		.word	1945
 606 0154 65030000 		.word	869
 607 0158 AA020000 		.word	682
 608 015c 4B030000 		.word	843
 609 0160 95040000 		.word	1173
 610 0164 36050000 		.word	1334
 611 0168 FD020000 		.word	765
 612 016c 9E030000 		.word	926
 613 0170 27040000 		.word	1063
 614 0174 86020000 		.word	646
 615 0178 27030000 		.word	807
 616              		.cfi_endproc
 617              	.LFE39:
 618              		.size	color_map, .-color_map
 619              		.bss
 620              		.align	2
 621              	buffer.8459:
 622 0000 0000     		.space	2
 623 0002 0000     		.text
 624              	.Letext0:
 625              		.file 2 "Generated_Source\\PSoC4/Cytypes.h"
 626              		.file 3 "Generated_Source\\PSoC4/BLE.h"
 627              		.file 4 "Generated_Source\\PSoC4/BLE_Stack.h"