ARM GAS  C:\Users\Gaurav\AppData\Local\Temp\cca8P3k4.s 			page 1


   1              		.cpu cortex-m0
   2              		.fpu softvfp
   3              		.eabi_attribute 20, 1
   4              		.eabi_attribute 21, 1
   5              		.eabi_attribute 23, 3
   6              		.eabi_attribute 24, 1
   7              		.eabi_attribute 25, 1
   8              		.eabi_attribute 26, 1
   9              		.eabi_attribute 30, 6
  10              		.eabi_attribute 34, 0
  11              		.eabi_attribute 18, 4
  12              		.code	16
  13              		.file	"main.c"
  14              		.text
  15              	.Ltext0:
  16              		.cfi_sections	.debug_frame
  17              		.global	color
  18              		.data
  19              		.type	color, %object
  20              		.size	color, 1
  21              	color:
  22 0000 55       		.byte	85
  23              		.section	.text.main,"ax",%progbits
  24              		.align	2
  25              		.global	main
  26              		.code	16
  27              		.thumb_func
  28              		.type	main, %function
  29              	main:
  30              	.LFB37:
  31              		.file 1 ".\\main.c"
   1:.\main.c      **** /*******************************************************************************
   2:.\main.c      **** * File Name: main.c
   3:.\main.c      **** *
   4:.\main.c      **** * Version: 1.0
   5:.\main.c      **** *
   6:.\main.c      **** * Description:
   7:.\main.c      **** *  This is source code for the PSoC 4 BLE MIDI for iOS/Mac example project.
   8:.\main.c      **** *
   9:.\main.c      **** * Note:
  10:.\main.c      **** *
  11:.\main.c      **** * Owners:
  12:.\main.c      **** *  KRIS@CYPRESS.COM
  13:.\main.c      **** *
  14:.\main.c      **** * Related Document:
  15:.\main.c      **** *
  16:.\main.c      **** * Hardware Dependency:
  17:.\main.c      **** *  1. PSoC 4 BLE device
  18:.\main.c      **** *  2. CY8CKIT-042 BLE Pioneer Kit
  19:.\main.c      **** *
  20:.\main.c      **** * Code Tested With:
  21:.\main.c      **** *  1. PSoC Creator 3.1 CP1
  22:.\main.c      **** *  2. ARM CM3-GCC
  23:.\main.c      **** *
  24:.\main.c      **** ********************************************************************************
  25:.\main.c      **** * Copyright 2015, Cypress Semiconductor Corporation.  All rights reserved.
  26:.\main.c      **** * You may use this file only in accordance with the license, terms, conditions,
ARM GAS  C:\Users\Gaurav\AppData\Local\Temp\cca8P3k4.s 			page 2


  27:.\main.c      **** * disclaimers, and limitations in the end user license agreement accompanying
  28:.\main.c      **** * the software package with which this file was provided.
  29:.\main.c      **** *******************************************************************************/
  30:.\main.c      **** 
  31:.\main.c      **** #include <BLE_Interface.h>
  32:.\main.c      **** #include <Configuration.h>
  33:.\main.c      **** #include <Init.h>
  34:.\main.c      **** #include <Logger.h>
  35:.\main.c      **** #include <MIDI.h>
  36:.\main.c      **** #include <Project.h>
  37:.\main.c      **** #include <UI.h>
  38:.\main.c      **** 
  39:.\main.c      **** #include <I2Cinit.h>
  40:.\main.c      **** #include <I2C_1_I2C.h>
  41:.\main.c      **** #include <stdio.h>
  42:.\main.c      **** 
  43:.\main.c      **** /*******************************************************************************
  44:.\main.c      **** * Function Name: main
  45:.\main.c      **** ********************************************************************************
  46:.\main.c      **** *
  47:.\main.c      **** * Summary:
  48:.\main.c      **** *  Main function.
  49:.\main.c      **** *
  50:.\main.c      **** * Parameters:
  51:.\main.c      **** *  None
  52:.\main.c      **** *
  53:.\main.c      **** * Return:
  54:.\main.c      **** *  None
  55:.\main.c      **** *
  56:.\main.c      **** *******************************************************************************/
  57:.\main.c      **** // This is function declaration 
  58:.\main.c      **** 
  59:.\main.c      **** void write_function(void);
  60:.\main.c      **** char color_map(uint16 x, uint16 y, uint16 z);
  61:.\main.c      **** volatile char color = 'U';   // Output color from sensor
  62:.\main.c      **** 
  63:.\main.c      **** int main()
  64:.\main.c      **** {
  32              		.loc 1 64 0
  33              		.cfi_startproc
  34 0000 90B5     		push	{r4, r7, lr}
  35              		.cfi_def_cfa_offset 12
  36              		.cfi_offset 4, -12
  37              		.cfi_offset 7, -8
  38              		.cfi_offset 14, -4
  39 0002 87B0     		sub	sp, sp, #28
  40              		.cfi_def_cfa_offset 40
  41 0004 00AF     		add	r7, sp, #0
  42              		.cfi_def_cfa_register 7
  65:.\main.c      ****     uint8 status;
  66:.\main.c      ****     uint8 readbuffer[8];   // All colors starting from Z Y IR1 X data
  67:.\main.c      ****     volatile uint16 x, y, z; 
  68:.\main.c      ****    
  69:.\main.c      ****     status = InitializeSystem();
  43              		.loc 1 69 0
  44 0006 1723     		mov	r3, #23
  45 0008 FC18     		add	r4, r7, r3
ARM GAS  C:\Users\Gaurav\AppData\Local\Temp\cca8P3k4.s 			page 3


  46 000a FFF7FEFF 		bl	InitializeSystem
  47 000e 031C     		mov	r3, r0
  48 0010 2370     		strb	r3, [r4]
  70:.\main.c      ****     
  71:.\main.c      ****     if(status == 0)
  49              		.loc 1 71 0
  50 0012 1723     		mov	r3, #23
  51 0014 FB18     		add	r3, r7, r3
  52 0016 1B78     		ldrb	r3, [r3]
  53 0018 002B     		cmp	r3, #0
  54 001a 02D1     		bne	.L2
  72:.\main.c      ****     {
  73:.\main.c      ****        CYASSERT(0);    /* Something went wrong with BLE initialization, check */
  55              		.loc 1 73 0 discriminator 1
  56 001c 0020     		mov	r0, #0
  57 001e FFF7FEFF 		bl	CyHalt
  58              	.L2:
  74:.\main.c      ****     }
  75:.\main.c      ****     
  76:.\main.c      ****     write_function();
  59              		.loc 1 76 0
  60 0022 FFF7FEFF 		bl	write_function
  61              	.L6:
  62              	.LBB2:
  77:.\main.c      **** 
  78:.\main.c      ****     while(1)
  79:.\main.c      ****     {
  80:.\main.c      ****         
  81:.\main.c      ****         uint8 I2CreadBuffer[0x01] = {0x94}; //Location from which z data is to be read 
  63              		.loc 1 81 0
  64 0026 3B1D     		add	r3, r7, #4
  65 0028 9422     		mov	r2, #148
  66 002a 1A70     		strb	r2, [r3]
  82:.\main.c      ****      
  83:.\main.c      ****         uint16 uiChangeStatus;
  84:.\main.c      ****         
  85:.\main.c      ****         BLE_Run();
  67              		.loc 1 85 0
  68 002c FFF7FEFF 		bl	BLE_Run
  86:.\main.c      ****         
  87:.\main.c      ****         I2C_1_I2CMasterWriteBuf(I2C_Slave_Address,(uint8 *) I2CreadBuffer, sizeof(I2CreadBuffer), I
  69              		.loc 1 87 0
  70 0030 3B1D     		add	r3, r7, #4
  71 0032 3920     		mov	r0, #57
  72 0034 191C     		mov	r1, r3
  73 0036 0122     		mov	r2, #1
  74 0038 0023     		mov	r3, #0
  75 003a FFF7FEFF 		bl	I2C_1_I2CMasterWriteBuf
  88:.\main.c      ****         
  89:.\main.c      ****         while(!(I2C_1_I2CMasterStatus() & I2C_1_I2C_MSTAT_WR_CMPLT)); //Wait till the master comple
  76              		.loc 1 89 0
  77 003e C046     		mov	r8, r8
  78              	.L3:
  79              		.loc 1 89 0 is_stmt 0 discriminator 1
  80 0040 FFF7FEFF 		bl	I2C_1_I2CMasterStatus
  81 0044 021C     		mov	r2, r0
  82 0046 0223     		mov	r3, #2
ARM GAS  C:\Users\Gaurav\AppData\Local\Temp\cca8P3k4.s 			page 4


  83 0048 1340     		and	r3, r2
  84 004a F9D0     		beq	.L3
  90:.\main.c      ****         I2C_1_I2CMasterClearStatus(); //Clear I2C master status
  85              		.loc 1 90 0 is_stmt 1
  86 004c FFF7FEFF 		bl	I2C_1_I2CMasterClearStatus
  91:.\main.c      ****         
  92:.\main.c      ****          I2C_1_I2CMasterReadBuf(I2C_Slave_Address,(uint8 *) readbuffer, sizeof(readbuffer), I2C_1_I
  87              		.loc 1 92 0
  88 0050 0C23     		mov	r3, #12
  89 0052 FB18     		add	r3, r7, r3
  90 0054 3920     		mov	r0, #57
  91 0056 191C     		mov	r1, r3
  92 0058 0822     		mov	r2, #8
  93 005a 0023     		mov	r3, #0
  94 005c FFF7FEFF 		bl	I2C_1_I2CMasterReadBuf
  93:.\main.c      ****        
  94:.\main.c      ****        
  95:.\main.c      ****         while(!(I2C_1_I2CMasterStatus() & I2C_1_I2C_MSTAT_RD_CMPLT)); //Wait till the master comple
  95              		.loc 1 95 0
  96 0060 C046     		mov	r8, r8
  97              	.L4:
  98              		.loc 1 95 0 is_stmt 0 discriminator 1
  99 0062 FFF7FEFF 		bl	I2C_1_I2CMasterStatus
 100 0066 021C     		mov	r2, r0
 101 0068 0123     		mov	r3, #1
 102 006a 1340     		and	r3, r2
 103 006c F9D0     		beq	.L4
  96:.\main.c      ****         I2C_1_I2CMasterClearStatus(); //Clear I2C master status
 104              		.loc 1 96 0 is_stmt 1
 105 006e FFF7FEFF 		bl	I2C_1_I2CMasterClearStatus
  97:.\main.c      ****         
  98:.\main.c      ****         z = readbuffer[0] | (readbuffer[1] << 8) ;
 106              		.loc 1 98 0
 107 0072 0C23     		mov	r3, #12
 108 0074 FB18     		add	r3, r7, r3
 109 0076 1B78     		ldrb	r3, [r3]
 110 0078 9AB2     		uxth	r2, r3
 111 007a 0C23     		mov	r3, #12
 112 007c FB18     		add	r3, r7, r3
 113 007e 5B78     		ldrb	r3, [r3, #1]
 114 0080 1B02     		lsl	r3, r3, #8
 115 0082 9BB2     		uxth	r3, r3
 116 0084 1343     		orr	r3, r2
 117 0086 9BB2     		uxth	r3, r3
 118 0088 9AB2     		uxth	r2, r3
 119 008a BB1D     		add	r3, r7, #6
 120 008c 1A80     		strh	r2, [r3]
  99:.\main.c      ****         y = readbuffer[2] | (readbuffer[3] << 8) ;
 121              		.loc 1 99 0
 122 008e 0C23     		mov	r3, #12
 123 0090 FB18     		add	r3, r7, r3
 124 0092 9B78     		ldrb	r3, [r3, #2]
 125 0094 9AB2     		uxth	r2, r3
 126 0096 0C23     		mov	r3, #12
 127 0098 FB18     		add	r3, r7, r3
 128 009a DB78     		ldrb	r3, [r3, #3]
 129 009c 1B02     		lsl	r3, r3, #8
ARM GAS  C:\Users\Gaurav\AppData\Local\Temp\cca8P3k4.s 			page 5


 130 009e 9BB2     		uxth	r3, r3
 131 00a0 1343     		orr	r3, r2
 132 00a2 9BB2     		uxth	r3, r3
 133 00a4 9AB2     		uxth	r2, r3
 134 00a6 0823     		mov	r3, #8
 135 00a8 FB18     		add	r3, r7, r3
 136 00aa 1A80     		strh	r2, [r3]
 100:.\main.c      ****         x = readbuffer[6] | (readbuffer[7] << 8) ;
 137              		.loc 1 100 0
 138 00ac 0C23     		mov	r3, #12
 139 00ae FB18     		add	r3, r7, r3
 140 00b0 9B79     		ldrb	r3, [r3, #6]
 141 00b2 9AB2     		uxth	r2, r3
 142 00b4 0C23     		mov	r3, #12
 143 00b6 FB18     		add	r3, r7, r3
 144 00b8 DB79     		ldrb	r3, [r3, #7]
 145 00ba 1B02     		lsl	r3, r3, #8
 146 00bc 9BB2     		uxth	r3, r3
 147 00be 1343     		orr	r3, r2
 148 00c0 9BB2     		uxth	r3, r3
 149 00c2 9AB2     		uxth	r2, r3
 150 00c4 0A23     		mov	r3, #10
 151 00c6 FB18     		add	r3, r7, r3
 152 00c8 1A80     		strh	r2, [r3]
 101:.\main.c      ****        
 102:.\main.c      ****          color = color_map(x,y,z);
 153              		.loc 1 102 0
 154 00ca 0A23     		mov	r3, #10
 155 00cc FB18     		add	r3, r7, r3
 156 00ce 1B88     		ldrh	r3, [r3]
 157 00d0 99B2     		uxth	r1, r3
 158 00d2 0823     		mov	r3, #8
 159 00d4 FB18     		add	r3, r7, r3
 160 00d6 1B88     		ldrh	r3, [r3]
 161 00d8 9AB2     		uxth	r2, r3
 162 00da BB1D     		add	r3, r7, #6
 163 00dc 1B88     		ldrh	r3, [r3]
 164 00de 9BB2     		uxth	r3, r3
 165 00e0 081C     		mov	r0, r1
 166 00e2 111C     		mov	r1, r2
 167 00e4 1A1C     		mov	r2, r3
 168 00e6 FFF7FEFF 		bl	color_map
 169 00ea 031C     		mov	r3, r0
 170 00ec 1A1C     		mov	r2, r3
 171 00ee 0C4B     		ldr	r3, .L7
 172 00f0 1A70     		strb	r2, [r3]
 103:.\main.c      ****         
 104:.\main.c      ****         uiChangeStatus = UIInput_Run();
 173              		.loc 1 104 0
 174 00f2 1423     		mov	r3, #20
 175 00f4 FC18     		add	r4, r7, r3
 176 00f6 FFF7FEFF 		bl	UIInput_Run
 177 00fa 031C     		mov	r3, r0
 178 00fc 2380     		strh	r3, [r4]
 105:.\main.c      ****         
 106:.\main.c      ****         Midi_Run(uiChangeStatus);
 179              		.loc 1 106 0
ARM GAS  C:\Users\Gaurav\AppData\Local\Temp\cca8P3k4.s 			page 6


 180 00fe 1423     		mov	r3, #20
 181 0100 FB18     		add	r3, r7, r3
 182 0102 1B88     		ldrh	r3, [r3]
 183 0104 181C     		mov	r0, r3
 184 0106 FFF7FEFF 		bl	Midi_Run
 107:.\main.c      ****         
 108:.\main.c      ****         UIOutput_Run();  
 185              		.loc 1 108 0
 186 010a FFF7FEFF 		bl	UIOutput_Run
 109:.\main.c      ****         
 110:.\main.c      ****     
 111:.\main.c      ****         if(cyBle_pendingFlashWrite != 0u)
 187              		.loc 1 111 0
 188 010e 054B     		ldr	r3, .L7+4
 189 0110 1B78     		ldrb	r3, [r3]
 190 0112 002B     		cmp	r3, #0
 191 0114 02D0     		beq	.L5
 112:.\main.c      ****         {
 113:.\main.c      ****             /* Store bounding data to flash only when all debug information has been sent */
 114:.\main.c      ****             CyBle_StoreBondingData(0u);
 192              		.loc 1 114 0
 193 0116 0020     		mov	r0, #0
 194 0118 FFF7FEFF 		bl	CyBle_StoreBondingData
 195              	.L5:
 196              	.LBE2:
 115:.\main.c      ****         }  
 116:.\main.c      ****             
 117:.\main.c      ****          
 118:.\main.c      ****         
 119:.\main.c      ****         
 120:.\main.c      ****     }
 197              		.loc 1 120 0
 198 011c 83E7     		b	.L6
 199              	.L8:
 200 011e C046     		.align	2
 201              	.L7:
 202 0120 00000000 		.word	color
 203 0124 00000000 		.word	cyBle_pendingFlashWrite
 204              		.cfi_endproc
 205              	.LFE37:
 206              		.size	main, .-main
 207              		.section	.text.write_function,"ax",%progbits
 208              		.align	2
 209              		.global	write_function
 210              		.code	16
 211              		.thumb_func
 212              		.type	write_function, %function
 213              	write_function:
 214              	.LFB38:
 121:.\main.c      **** }
 122:.\main.c      **** 
 123:.\main.c      **** 
 124:.\main.c      **** void write_function(void)
 125:.\main.c      **** {
 215              		.loc 1 125 0
 216              		.cfi_startproc
 217 0000 80B5     		push	{r7, lr}
ARM GAS  C:\Users\Gaurav\AppData\Local\Temp\cca8P3k4.s 			page 7


 218              		.cfi_def_cfa_offset 8
 219              		.cfi_offset 7, -8
 220              		.cfi_offset 14, -4
 221 0002 00AF     		add	r7, sp, #0
 222              		.cfi_def_cfa_register 7
 126:.\main.c      ****        static  uint8 buffer[BUFFER_SIZE];
 127:.\main.c      ****         
 128:.\main.c      ****          /* Turn off sensor */
 129:.\main.c      ****      buffer[0] = 0x80;   // Address of Enable 
 223              		.loc 1 129 0
 224 0004 3F4B     		ldr	r3, .L15
 225 0006 8022     		mov	r2, #128
 226 0008 1A70     		strb	r2, [r3]
 130:.\main.c      ****      buffer[1] = 0x00;   // Pon =0  & Aeon = 0 to turn off the sensor and ALS Enable 
 227              		.loc 1 130 0
 228 000a 3E4B     		ldr	r3, .L15
 229 000c 0022     		mov	r2, #0
 230 000e 5A70     		strb	r2, [r3, #1]
 131:.\main.c      ****    
 132:.\main.c      ****     
 133:.\main.c      ****     I2C_1_I2CMasterWriteBuf(I2C_Slave_Address,(uint8 *)buffer, BUFFER_SIZE, I2C_1_I2C_MODE_COMPLETE
 231              		.loc 1 133 0
 232 0010 3C4B     		ldr	r3, .L15
 233 0012 3920     		mov	r0, #57
 234 0014 191C     		mov	r1, r3
 235 0016 0222     		mov	r2, #2
 236 0018 0023     		mov	r3, #0
 237 001a FFF7FEFF 		bl	I2C_1_I2CMasterWriteBuf
 134:.\main.c      ****     while(!(I2C_1_I2CMasterStatus() & I2C_1_I2C_MSTAT_WR_CMPLT)); //Wait till the master completes 
 238              		.loc 1 134 0
 239 001e C046     		mov	r8, r8
 240              	.L10:
 241              		.loc 1 134 0 is_stmt 0 discriminator 1
 242 0020 FFF7FEFF 		bl	I2C_1_I2CMasterStatus
 243 0024 021C     		mov	r2, r0
 244 0026 0223     		mov	r3, #2
 245 0028 1340     		and	r3, r2
 246 002a F9D0     		beq	.L10
 135:.\main.c      ****     I2C_1_I2CMasterClearStatus(); //Clear I2C master status
 247              		.loc 1 135 0 is_stmt 1
 248 002c FFF7FEFF 		bl	I2C_1_I2CMasterClearStatus
 136:.\main.c      ****     
 137:.\main.c      ****     CyDelay(5);
 249              		.loc 1 137 0
 250 0030 0520     		mov	r0, #5
 251 0032 FFF7FEFF 		bl	CyDelay
 138:.\main.c      ****     
 139:.\main.c      ****     //Set ALS integration time
 140:.\main.c      ****     buffer[0] = 0x81;   // Address of ATIME register 
 252              		.loc 1 140 0
 253 0036 334B     		ldr	r3, .L15
 254 0038 8122     		mov	r2, #129
 255 003a 1A70     		strb	r2, [r3]
 141:.\main.c      ****     buffer[1] = 0x40;   // Ensures full ALS range (0x40 -->  181ms, 65535 max value)
 256              		.loc 1 141 0
 257 003c 314B     		ldr	r3, .L15
 258 003e 4022     		mov	r2, #64
ARM GAS  C:\Users\Gaurav\AppData\Local\Temp\cca8P3k4.s 			page 8


 259 0040 5A70     		strb	r2, [r3, #1]
 142:.\main.c      ****     
 143:.\main.c      ****     I2C_1_I2CMasterWriteBuf(I2C_Slave_Address,(uint8 *)buffer, BUFFER_SIZE, I2C_1_I2C_MODE_COMPLETE
 260              		.loc 1 143 0
 261 0042 304B     		ldr	r3, .L15
 262 0044 3920     		mov	r0, #57
 263 0046 191C     		mov	r1, r3
 264 0048 0222     		mov	r2, #2
 265 004a 0023     		mov	r3, #0
 266 004c FFF7FEFF 		bl	I2C_1_I2CMasterWriteBuf
 144:.\main.c      ****     while(!(I2C_1_I2CMasterStatus() & I2C_1_I2C_MSTAT_WR_CMPLT)); //Wait till the master completes 
 267              		.loc 1 144 0
 268 0050 C046     		mov	r8, r8
 269              	.L11:
 270              		.loc 1 144 0 is_stmt 0 discriminator 1
 271 0052 FFF7FEFF 		bl	I2C_1_I2CMasterStatus
 272 0056 021C     		mov	r2, r0
 273 0058 0223     		mov	r3, #2
 274 005a 1340     		and	r3, r2
 275 005c F9D0     		beq	.L11
 145:.\main.c      ****     I2C_1_I2CMasterClearStatus(); //Clear I2C master status
 276              		.loc 1 145 0 is_stmt 1
 277 005e FFF7FEFF 		bl	I2C_1_I2CMasterClearStatus
 146:.\main.c      ****     
 147:.\main.c      ****     CyDelay(5);
 278              		.loc 1 147 0
 279 0062 0520     		mov	r0, #5
 280 0064 FFF7FEFF 		bl	CyDelay
 148:.\main.c      ****     
 149:.\main.c      ****     
 150:.\main.c      ****     //Set ADC gain
 151:.\main.c      ****     buffer[0] = 0x90;   // Address of CFG1 Register
 281              		.loc 1 151 0
 282 0068 264B     		ldr	r3, .L15
 283 006a 9022     		mov	r2, #144
 284 006c 1A70     		strb	r2, [r3]
 152:.\main.c      ****     buffer[1] = 0x03;   // Max gain (64x)
 285              		.loc 1 152 0
 286 006e 254B     		ldr	r3, .L15
 287 0070 0322     		mov	r2, #3
 288 0072 5A70     		strb	r2, [r3, #1]
 153:.\main.c      ****     
 154:.\main.c      ****     I2C_1_I2CMasterWriteBuf(I2C_Slave_Address,(uint8 *)buffer, BUFFER_SIZE, I2C_1_I2C_MODE_COMPLETE
 289              		.loc 1 154 0
 290 0074 234B     		ldr	r3, .L15
 291 0076 3920     		mov	r0, #57
 292 0078 191C     		mov	r1, r3
 293 007a 0222     		mov	r2, #2
 294 007c 0023     		mov	r3, #0
 295 007e FFF7FEFF 		bl	I2C_1_I2CMasterWriteBuf
 155:.\main.c      ****     while(!(I2C_1_I2CMasterStatus() & I2C_1_I2C_MSTAT_WR_CMPLT)); //Wait till the master completes 
 296              		.loc 1 155 0
 297 0082 C046     		mov	r8, r8
 298              	.L12:
 299              		.loc 1 155 0 is_stmt 0 discriminator 1
 300 0084 FFF7FEFF 		bl	I2C_1_I2CMasterStatus
 301 0088 021C     		mov	r2, r0
ARM GAS  C:\Users\Gaurav\AppData\Local\Temp\cca8P3k4.s 			page 9


 302 008a 0223     		mov	r3, #2
 303 008c 1340     		and	r3, r2
 304 008e F9D0     		beq	.L12
 156:.\main.c      ****     I2C_1_I2CMasterClearStatus(); //Clear I2C master status
 305              		.loc 1 156 0 is_stmt 1
 306 0090 FFF7FEFF 		bl	I2C_1_I2CMasterClearStatus
 157:.\main.c      ****     
 158:.\main.c      ****     CyDelay(5);
 307              		.loc 1 158 0
 308 0094 0520     		mov	r0, #5
 309 0096 FFF7FEFF 		bl	CyDelay
 159:.\main.c      ****     
 160:.\main.c      ****     //Turn power on but wait with enabling ALS
 161:.\main.c      ****     buffer[0] = 0x80;   // Address of ENABLE register 
 310              		.loc 1 161 0
 311 009a 1A4B     		ldr	r3, .L15
 312 009c 8022     		mov	r2, #128
 313 009e 1A70     		strb	r2, [r3]
 162:.\main.c      ****     buffer[1] = 0x01;   // PON on , ALS off
 314              		.loc 1 162 0
 315 00a0 184B     		ldr	r3, .L15
 316 00a2 0122     		mov	r2, #1
 317 00a4 5A70     		strb	r2, [r3, #1]
 163:.\main.c      ****     
 164:.\main.c      ****     I2C_1_I2CMasterWriteBuf(I2C_Slave_Address,(uint8 *)buffer, BUFFER_SIZE, I2C_1_I2C_MODE_COMPLETE
 318              		.loc 1 164 0
 319 00a6 174B     		ldr	r3, .L15
 320 00a8 3920     		mov	r0, #57
 321 00aa 191C     		mov	r1, r3
 322 00ac 0222     		mov	r2, #2
 323 00ae 0023     		mov	r3, #0
 324 00b0 FFF7FEFF 		bl	I2C_1_I2CMasterWriteBuf
 165:.\main.c      ****     while(!(I2C_1_I2CMasterStatus() & I2C_1_I2C_MSTAT_WR_CMPLT)); //Wait till the master completes 
 325              		.loc 1 165 0
 326 00b4 C046     		mov	r8, r8
 327              	.L13:
 328              		.loc 1 165 0 is_stmt 0 discriminator 1
 329 00b6 FFF7FEFF 		bl	I2C_1_I2CMasterStatus
 330 00ba 021C     		mov	r2, r0
 331 00bc 0223     		mov	r3, #2
 332 00be 1340     		and	r3, r2
 333 00c0 F9D0     		beq	.L13
 166:.\main.c      ****     I2C_1_I2CMasterClearStatus(); //Clear I2C master status
 334              		.loc 1 166 0 is_stmt 1
 335 00c2 FFF7FEFF 		bl	I2C_1_I2CMasterClearStatus
 167:.\main.c      ****     CyDelay(5);
 336              		.loc 1 167 0
 337 00c6 0520     		mov	r0, #5
 338 00c8 FFF7FEFF 		bl	CyDelay
 168:.\main.c      ****     
 169:.\main.c      ****     //Enable ALS
 170:.\main.c      ****     buffer[0] = 0x80;   // Address of ENABLE register  
 339              		.loc 1 170 0
 340 00cc 0D4B     		ldr	r3, .L15
 341 00ce 8022     		mov	r2, #128
 342 00d0 1A70     		strb	r2, [r3]
 171:.\main.c      ****     buffer[1] = 0x03;   //PON, ALS on
ARM GAS  C:\Users\Gaurav\AppData\Local\Temp\cca8P3k4.s 			page 10


 343              		.loc 1 171 0
 344 00d2 0C4B     		ldr	r3, .L15
 345 00d4 0322     		mov	r2, #3
 346 00d6 5A70     		strb	r2, [r3, #1]
 172:.\main.c      ****     
 173:.\main.c      ****     I2C_1_I2CMasterWriteBuf(I2C_Slave_Address,(uint8 *)buffer, BUFFER_SIZE, I2C_1_I2C_MODE_COMPLETE
 347              		.loc 1 173 0
 348 00d8 0A4B     		ldr	r3, .L15
 349 00da 3920     		mov	r0, #57
 350 00dc 191C     		mov	r1, r3
 351 00de 0222     		mov	r2, #2
 352 00e0 0023     		mov	r3, #0
 353 00e2 FFF7FEFF 		bl	I2C_1_I2CMasterWriteBuf
 174:.\main.c      ****     while(!(I2C_1_I2CMasterStatus() & I2C_1_I2C_MSTAT_WR_CMPLT)); //Wait till the master completes 
 354              		.loc 1 174 0
 355 00e6 C046     		mov	r8, r8
 356              	.L14:
 357              		.loc 1 174 0 is_stmt 0 discriminator 1
 358 00e8 FFF7FEFF 		bl	I2C_1_I2CMasterStatus
 359 00ec 021C     		mov	r2, r0
 360 00ee 0223     		mov	r3, #2
 361 00f0 1340     		and	r3, r2
 362 00f2 F9D0     		beq	.L14
 175:.\main.c      ****     I2C_1_I2CMasterClearStatus(); //Clear I2C master status
 363              		.loc 1 175 0 is_stmt 1
 364 00f4 FFF7FEFF 		bl	I2C_1_I2CMasterClearStatus
 176:.\main.c      ****     CyDelay(5);
 365              		.loc 1 176 0
 366 00f8 0520     		mov	r0, #5
 367 00fa FFF7FEFF 		bl	CyDelay
 177:.\main.c      ****     
 178:.\main.c      **** 
 179:.\main.c      **** }
 368              		.loc 1 179 0
 369 00fe BD46     		mov	sp, r7
 370              		@ sp needed
 371 0100 80BD     		pop	{r7, pc}
 372              	.L16:
 373 0102 C046     		.align	2
 374              	.L15:
 375 0104 00000000 		.word	buffer.8459
 376              		.cfi_endproc
 377              	.LFE38:
 378              		.size	write_function, .-write_function
 379              		.section	.text.color_map,"ax",%progbits
 380              		.align	2
 381              		.global	color_map
 382              		.code	16
 383              		.thumb_func
 384              		.type	color_map, %function
 385              	color_map:
 386              	.LFB39:
 180:.\main.c      **** 
 181:.\main.c      **** char color_map(uint16 x, uint16 y, uint16 z)
 182:.\main.c      **** {
 387              		.loc 1 182 0
 388              		.cfi_startproc
ARM GAS  C:\Users\Gaurav\AppData\Local\Temp\cca8P3k4.s 			page 11


 389 0000 90B5     		push	{r4, r7, lr}
 390              		.cfi_def_cfa_offset 12
 391              		.cfi_offset 4, -12
 392              		.cfi_offset 7, -8
 393              		.cfi_offset 14, -4
 394 0002 83B0     		sub	sp, sp, #12
 395              		.cfi_def_cfa_offset 24
 396 0004 00AF     		add	r7, sp, #0
 397              		.cfi_def_cfa_register 7
 398 0006 041C     		mov	r4, r0
 399 0008 081C     		mov	r0, r1
 400 000a 111C     		mov	r1, r2
 401 000c BB1D     		add	r3, r7, #6
 402 000e 221C     		add	r2, r4, #0
 403 0010 1A80     		strh	r2, [r3]
 404 0012 3B1D     		add	r3, r7, #4
 405 0014 021C     		add	r2, r0, #0
 406 0016 1A80     		strh	r2, [r3]
 407 0018 BB1C     		add	r3, r7, #2
 408 001a 0A1C     		add	r2, r1, #0
 409 001c 1A80     		strh	r2, [r3]
 183:.\main.c      ****     if (((X_min_black <= x) && (x <= X_max_black))&&((Y_min_black <= y) && (y <= Y_max_black))&&((Z
 410              		.loc 1 183 0
 411 001e BB1D     		add	r3, r7, #6
 412 0020 1A88     		ldrh	r2, [r3]
 413 0022 8023     		mov	r3, #128
 414 0024 5B00     		lsl	r3, r3, #1
 415 0026 9A42     		cmp	r2, r3
 416 0028 0DD8     		bhi	.L18
 417              		.loc 1 183 0 is_stmt 0 discriminator 1
 418 002a 3B1D     		add	r3, r7, #4
 419 002c 1A88     		ldrh	r2, [r3]
 420 002e 8023     		mov	r3, #128
 421 0030 5B00     		lsl	r3, r3, #1
 422 0032 9A42     		cmp	r2, r3
 423 0034 07D8     		bhi	.L18
 424              		.loc 1 183 0 discriminator 2
 425 0036 BB1C     		add	r3, r7, #2
 426 0038 1A88     		ldrh	r2, [r3]
 427 003a 8023     		mov	r3, #128
 428 003c 5B00     		lsl	r3, r3, #1
 429 003e 9A42     		cmp	r2, r3
 430 0040 01D8     		bhi	.L18
 184:.\main.c      ****     {
 185:.\main.c      ****         return 'B';
 431              		.loc 1 185 0 is_stmt 1
 432 0042 4223     		mov	r3, #66
 433 0044 7FE0     		b	.L19
 434              	.L18:
 186:.\main.c      ****     }
 187:.\main.c      ****     else if (((X_min_white <= x) && (x <= X_max_white))&&((Y_min_white <= y) && (y <= Y_max_white))
 435              		.loc 1 187 0
 436 0046 BB1D     		add	r3, r7, #6
 437 0048 1A88     		ldrh	r2, [r3]
 438 004a C123     		mov	r3, #193
 439 004c DB00     		lsl	r3, r3, #3
 440 004e 9A42     		cmp	r2, r3
ARM GAS  C:\Users\Gaurav\AppData\Local\Temp\cca8P3k4.s 			page 12


 441 0050 1CD9     		bls	.L20
 442              		.loc 1 187 0 is_stmt 0 discriminator 1
 443 0052 BB1D     		add	r3, r7, #6
 444 0054 1B88     		ldrh	r3, [r3]
 445 0056 3E4A     		ldr	r2, .L24
 446 0058 9342     		cmp	r3, r2
 447 005a 17D8     		bhi	.L20
 448              		.loc 1 187 0 discriminator 2
 449 005c 3B1D     		add	r3, r7, #4
 450 005e 1A88     		ldrh	r2, [r3]
 451 0060 C123     		mov	r3, #193
 452 0062 DB00     		lsl	r3, r3, #3
 453 0064 9A42     		cmp	r2, r3
 454 0066 11D9     		bls	.L20
 455              		.loc 1 187 0 discriminator 3
 456 0068 3B1D     		add	r3, r7, #4
 457 006a 1B88     		ldrh	r3, [r3]
 458 006c 384A     		ldr	r2, .L24
 459 006e 9342     		cmp	r3, r2
 460 0070 0CD8     		bhi	.L20
 461              		.loc 1 187 0 discriminator 4
 462 0072 BB1C     		add	r3, r7, #2
 463 0074 1A88     		ldrh	r2, [r3]
 464 0076 8123     		mov	r3, #129
 465 0078 9B00     		lsl	r3, r3, #2
 466 007a 9A42     		cmp	r2, r3
 467 007c 06D9     		bls	.L20
 468              		.loc 1 187 0 discriminator 5
 469 007e BB1C     		add	r3, r7, #2
 470 0080 1B88     		ldrh	r3, [r3]
 471 0082 344A     		ldr	r2, .L24+4
 472 0084 9342     		cmp	r3, r2
 473 0086 01D8     		bhi	.L20
 188:.\main.c      ****     {
 189:.\main.c      ****         return 'W';    // White Color 
 474              		.loc 1 189 0 is_stmt 1
 475 0088 5723     		mov	r3, #87
 476 008a 5CE0     		b	.L19
 477              	.L20:
 190:.\main.c      ****     }
 191:.\main.c      ****     else if (((X_min_red <= x) && (x <= X_max_red))&&((Y_min_red <= y) && (y <= Y_max_red))&&((Z_mi
 478              		.loc 1 191 0
 479 008c BB1D     		add	r3, r7, #6
 480 008e 1A88     		ldrh	r2, [r3]
 481 0090 8C23     		mov	r3, #140
 482 0092 FF33     		add	r3, r3, #255
 483 0094 9A42     		cmp	r2, r3
 484 0096 15D9     		bls	.L21
 485              		.loc 1 191 0 is_stmt 0 discriminator 1
 486 0098 BB1D     		add	r3, r7, #6
 487 009a 1A88     		ldrh	r2, [r3]
 488 009c 8B23     		mov	r3, #139
 489 009e 9B00     		lsl	r3, r3, #2
 490 00a0 9A42     		cmp	r2, r3
 491 00a2 0FD8     		bhi	.L21
 492              		.loc 1 191 0 discriminator 2
 493 00a4 3B1D     		add	r3, r7, #4
ARM GAS  C:\Users\Gaurav\AppData\Local\Temp\cca8P3k4.s 			page 13


 494 00a6 1B88     		ldrh	r3, [r3]
 495 00a8 A32B     		cmp	r3, #163
 496 00aa 0BD9     		bls	.L21
 497              		.loc 1 191 0 discriminator 3
 498 00ac 3B1D     		add	r3, r7, #4
 499 00ae 1A88     		ldrh	r2, [r3]
 500 00b0 A223     		mov	r3, #162
 501 00b2 5B00     		lsl	r3, r3, #1
 502 00b4 9A42     		cmp	r2, r3
 503 00b6 05D8     		bhi	.L21
 504              		.loc 1 191 0 discriminator 4
 505 00b8 BB1C     		add	r3, r7, #2
 506 00ba 1B88     		ldrh	r3, [r3]
 507 00bc 402B     		cmp	r3, #64
 508 00be 01D8     		bhi	.L21
 192:.\main.c      ****     {
 193:.\main.c      ****         return 'R';   // Red Color 
 509              		.loc 1 193 0 is_stmt 1
 510 00c0 5223     		mov	r3, #82
 511 00c2 40E0     		b	.L19
 512              	.L21:
 194:.\main.c      ****     }
 195:.\main.c      ****     else if (((X_min_green <= x) && (x <= X_max_green))&&((Y_min_green <= y) && (y <= Y_max_green))
 513              		.loc 1 195 0
 514 00c4 BB1D     		add	r3, r7, #6
 515 00c6 1B88     		ldrh	r3, [r3]
 516 00c8 234A     		ldr	r2, .L24+8
 517 00ca 9342     		cmp	r3, r2
 518 00cc 1AD9     		bls	.L22
 519              		.loc 1 195 0 is_stmt 0 discriminator 1
 520 00ce BB1D     		add	r3, r7, #6
 521 00d0 1B88     		ldrh	r3, [r3]
 522 00d2 224A     		ldr	r2, .L24+12
 523 00d4 9342     		cmp	r3, r2
 524 00d6 15D8     		bhi	.L22
 525              		.loc 1 195 0 discriminator 2
 526 00d8 3B1D     		add	r3, r7, #4
 527 00da 1B88     		ldrh	r3, [r3]
 528 00dc 204A     		ldr	r2, .L24+16
 529 00de 9342     		cmp	r3, r2
 530 00e0 10D9     		bls	.L22
 531              		.loc 1 195 0 discriminator 3
 532 00e2 3B1D     		add	r3, r7, #4
 533 00e4 1B88     		ldrh	r3, [r3]
 534 00e6 1F4A     		ldr	r2, .L24+20
 535 00e8 9342     		cmp	r3, r2
 536 00ea 0BD8     		bhi	.L22
 537              		.loc 1 195 0 discriminator 4
 538 00ec BB1C     		add	r3, r7, #2
 539 00ee 1B88     		ldrh	r3, [r3]
 540 00f0 192B     		cmp	r3, #25
 541 00f2 07D9     		bls	.L22
 542              		.loc 1 195 0 discriminator 5
 543 00f4 BB1C     		add	r3, r7, #2
 544 00f6 1A88     		ldrh	r2, [r3]
 545 00f8 8023     		mov	r3, #128
 546 00fa 5B00     		lsl	r3, r3, #1
ARM GAS  C:\Users\Gaurav\AppData\Local\Temp\cca8P3k4.s 			page 14


 547 00fc 9A42     		cmp	r2, r3
 548 00fe 01D8     		bhi	.L22
 196:.\main.c      ****     {
 197:.\main.c      ****         return 'G';    // Green Color 
 549              		.loc 1 197 0 is_stmt 1
 550 0100 4723     		mov	r3, #71
 551 0102 20E0     		b	.L19
 552              	.L22:
 198:.\main.c      ****     }
 199:.\main.c      ****     else if (((X_min_blue <= x) && (x <= X_max_blue))&&((Y_min_blue <= y) && (y <= Y_max_blue))&&((
 553              		.loc 1 199 0
 554 0104 BB1D     		add	r3, r7, #6
 555 0106 1B88     		ldrh	r3, [r3]
 556 0108 174A     		ldr	r2, .L24+24
 557 010a 9342     		cmp	r3, r2
 558 010c 1AD9     		bls	.L23
 559              		.loc 1 199 0 is_stmt 0 discriminator 1
 560 010e BB1D     		add	r3, r7, #6
 561 0110 1B88     		ldrh	r3, [r3]
 562 0112 164A     		ldr	r2, .L24+28
 563 0114 9342     		cmp	r3, r2
 564 0116 15D8     		bhi	.L23
 565              		.loc 1 199 0 discriminator 2
 566 0118 3B1D     		add	r3, r7, #4
 567 011a 1B88     		ldrh	r3, [r3]
 568 011c 124A     		ldr	r2, .L24+24
 569 011e 9342     		cmp	r3, r2
 570 0120 10D9     		bls	.L23
 571              		.loc 1 199 0 discriminator 3
 572 0122 3B1D     		add	r3, r7, #4
 573 0124 1B88     		ldrh	r3, [r3]
 574 0126 124A     		ldr	r2, .L24+32
 575 0128 9342     		cmp	r3, r2
 576 012a 0BD8     		bhi	.L23
 577              		.loc 1 199 0 discriminator 4
 578 012c BB1C     		add	r3, r7, #2
 579 012e 1B88     		ldrh	r3, [r3]
 580 0130 104A     		ldr	r2, .L24+36
 581 0132 9342     		cmp	r3, r2
 582 0134 06D9     		bls	.L23
 583              		.loc 1 199 0 discriminator 5
 584 0136 BB1C     		add	r3, r7, #2
 585 0138 1B88     		ldrh	r3, [r3]
 586 013a 0F4A     		ldr	r2, .L24+40
 587 013c 9342     		cmp	r3, r2
 588 013e 01D8     		bhi	.L23
 200:.\main.c      ****     {
 201:.\main.c      ****         return 'b';   // Blue Color 
 589              		.loc 1 201 0 is_stmt 1
 590 0140 6223     		mov	r3, #98
 591 0142 00E0     		b	.L19
 592              	.L23:
 202:.\main.c      ****     }
 203:.\main.c      ****     else return 'U';   // unknown color 
 593              		.loc 1 203 0
 594 0144 5523     		mov	r3, #85
 595              	.L19:
ARM GAS  C:\Users\Gaurav\AppData\Local\Temp\cca8P3k4.s 			page 15


 204:.\main.c      **** }
 596              		.loc 1 204 0
 597 0146 181C     		mov	r0, r3
 598 0148 BD46     		mov	sp, r7
 599 014a 03B0     		add	sp, sp, #12
 600              		@ sp needed
 601 014c 90BD     		pop	{r4, r7, pc}
 602              	.L25:
 603 014e C046     		.align	2
 604              	.L24:
 605 0150 99070000 		.word	1945
 606 0154 65030000 		.word	869
 607 0158 AA020000 		.word	682
 608 015c 4B030000 		.word	843
 609 0160 95040000 		.word	1173
 610 0164 36050000 		.word	1334
 611 0168 FD020000 		.word	765
 612 016c 9E030000 		.word	926
 613 0170 27040000 		.word	1063
 614 0174 86020000 		.word	646
 615 0178 27030000 		.word	807
 616              		.cfi_endproc
 617              	.LFE39:
 618              		.size	color_map, .-color_map
 619              		.bss
 620              		.align	2
 621              	buffer.8459:
 622 0000 0000     		.space	2
 623 0002 0000     		.text
 624              	.Letext0:
 625              		.file 2 "Generated_Source\\PSoC4/Cytypes.h"
 626              		.file 3 "Generated_Source\\PSoC4/BLE.h"
 627              		.file 4 "Generated_Source\\PSoC4/BLE_Stack.h"
 628              		.section	.debug_info,"",%progbits
 629              	.Ldebug_info0:
 630 0000 A1030000 		.4byte	0x3a1
 631 0004 0400     		.2byte	0x4
 632 0006 00000000 		.4byte	.Ldebug_abbrev0
 633 000a 04       		.byte	0x4
 634 000b 01       		.uleb128 0x1
 635 000c EE050000 		.4byte	.LASF91
 636 0010 01       		.byte	0x1
 637 0011 66070000 		.4byte	.LASF92
 638 0015 70090000 		.4byte	.LASF93
 639 0019 00000000 		.4byte	.Ldebug_ranges0+0
 640 001d 00000000 		.4byte	0
 641 0021 00000000 		.4byte	.Ldebug_line0
 642 0025 02       		.uleb128 0x2
 643 0026 01       		.byte	0x1
 644 0027 06       		.byte	0x6
 645 0028 53040000 		.4byte	.LASF0
 646 002c 02       		.uleb128 0x2
 647 002d 01       		.byte	0x1
 648 002e 08       		.byte	0x8
 649 002f EA030000 		.4byte	.LASF1
 650 0033 02       		.uleb128 0x2
 651 0034 02       		.byte	0x2
ARM GAS  C:\Users\Gaurav\AppData\Local\Temp\cca8P3k4.s 			page 16


 652 0035 05       		.byte	0x5
 653 0036 AD000000 		.4byte	.LASF2
 654 003a 02       		.uleb128 0x2
 655 003b 02       		.byte	0x2
 656 003c 07       		.byte	0x7
 657 003d 74050000 		.4byte	.LASF3
 658 0041 02       		.uleb128 0x2
 659 0042 04       		.byte	0x4
 660 0043 05       		.byte	0x5
 661 0044 A8020000 		.4byte	.LASF4
 662 0048 02       		.uleb128 0x2
 663 0049 04       		.byte	0x4
 664 004a 07       		.byte	0x7
 665 004b EA040000 		.4byte	.LASF5
 666 004f 02       		.uleb128 0x2
 667 0050 08       		.byte	0x8
 668 0051 05       		.byte	0x5
 669 0052 58070000 		.4byte	.LASF6
 670 0056 02       		.uleb128 0x2
 671 0057 08       		.byte	0x8
 672 0058 07       		.byte	0x7
 673 0059 91020000 		.4byte	.LASF7
 674 005d 03       		.uleb128 0x3
 675 005e 04       		.byte	0x4
 676 005f 05       		.byte	0x5
 677 0060 696E7400 		.ascii	"int\000"
 678 0064 02       		.uleb128 0x2
 679 0065 04       		.byte	0x4
 680 0066 07       		.byte	0x7
 681 0067 BC040000 		.4byte	.LASF8
 682 006b 04       		.uleb128 0x4
 683 006c BE030000 		.4byte	.LASF9
 684 0070 02       		.byte	0x2
 685 0071 9801     		.2byte	0x198
 686 0073 2C000000 		.4byte	0x2c
 687 0077 04       		.uleb128 0x4
 688 0078 67010000 		.4byte	.LASF10
 689 007c 02       		.byte	0x2
 690 007d 9901     		.2byte	0x199
 691 007f 3A000000 		.4byte	0x3a
 692 0083 04       		.uleb128 0x4
 693 0084 E6060000 		.4byte	.LASF11
 694 0088 02       		.byte	0x2
 695 0089 9A01     		.2byte	0x19a
 696 008b 48000000 		.4byte	0x48
 697 008f 02       		.uleb128 0x2
 698 0090 04       		.byte	0x4
 699 0091 04       		.byte	0x4
 700 0092 28020000 		.4byte	.LASF12
 701 0096 02       		.uleb128 0x2
 702 0097 08       		.byte	0x8
 703 0098 04       		.byte	0x4
 704 0099 2E070000 		.4byte	.LASF13
 705 009d 02       		.uleb128 0x2
 706 009e 01       		.byte	0x1
 707 009f 08       		.byte	0x8
 708 00a0 DE050000 		.4byte	.LASF14
ARM GAS  C:\Users\Gaurav\AppData\Local\Temp\cca8P3k4.s 			page 17


 709 00a4 05       		.uleb128 0x5
 710 00a5 77000000 		.4byte	0x77
 711 00a9 02       		.uleb128 0x2
 712 00aa 04       		.byte	0x4
 713 00ab 07       		.byte	0x7
 714 00ac D1000000 		.4byte	.LASF15
 715 00b0 06       		.uleb128 0x6
 716 00b1 01       		.byte	0x1
 717 00b2 04       		.byte	0x4
 718 00b3 4201     		.2byte	0x142
 719 00b5 6D020000 		.4byte	0x26d
 720 00b9 07       		.uleb128 0x7
 721 00ba D2010000 		.4byte	.LASF16
 722 00be 00       		.sleb128 0
 723 00bf 07       		.uleb128 0x7
 724 00c0 36010000 		.4byte	.LASF17
 725 00c4 01       		.sleb128 1
 726 00c5 07       		.uleb128 0x7
 727 00c6 54080000 		.4byte	.LASF18
 728 00ca 02       		.sleb128 2
 729 00cb 07       		.uleb128 0x7
 730 00cc 6F070000 		.4byte	.LASF19
 731 00d0 03       		.sleb128 3
 732 00d1 07       		.uleb128 0x7
 733 00d2 00010000 		.4byte	.LASF20
 734 00d6 04       		.sleb128 4
 735 00d7 07       		.uleb128 0x7
 736 00d8 3A030000 		.4byte	.LASF21
 737 00dc 05       		.sleb128 5
 738 00dd 07       		.uleb128 0x7
 739 00de 3E000000 		.4byte	.LASF22
 740 00e2 06       		.sleb128 6
 741 00e3 07       		.uleb128 0x7
 742 00e4 CD070000 		.4byte	.LASF23
 743 00e8 20       		.sleb128 32
 744 00e9 07       		.uleb128 0x7
 745 00ea FC040000 		.4byte	.LASF24
 746 00ee 21       		.sleb128 33
 747 00ef 07       		.uleb128 0x7
 748 00f0 00000000 		.4byte	.LASF25
 749 00f4 22       		.sleb128 34
 750 00f5 07       		.uleb128 0x7
 751 00f6 56030000 		.4byte	.LASF26
 752 00fa 23       		.sleb128 35
 753 00fb 07       		.uleb128 0x7
 754 00fc A0040000 		.4byte	.LASF27
 755 0100 24       		.sleb128 36
 756 0101 07       		.uleb128 0x7
 757 0102 B7000000 		.4byte	.LASF28
 758 0106 25       		.sleb128 37
 759 0107 07       		.uleb128 0x7
 760 0108 F1020000 		.4byte	.LASF29
 761 010c 26       		.sleb128 38
 762 010d 07       		.uleb128 0x7
 763 010e D2020000 		.4byte	.LASF30
 764 0112 27       		.sleb128 39
 765 0113 07       		.uleb128 0x7
ARM GAS  C:\Users\Gaurav\AppData\Local\Temp\cca8P3k4.s 			page 18


 766 0114 4E090000 		.4byte	.LASF31
 767 0118 28       		.sleb128 40
 768 0119 07       		.uleb128 0x7
 769 011a 34050000 		.4byte	.LASF32
 770 011e 29       		.sleb128 41
 771 011f 07       		.uleb128 0x7
 772 0120 8E050000 		.4byte	.LASF33
 773 0124 2A       		.sleb128 42
 774 0125 07       		.uleb128 0x7
 775 0126 8A080000 		.4byte	.LASF34
 776 012a 2B       		.sleb128 43
 777 012b 07       		.uleb128 0x7
 778 012c 6E010000 		.4byte	.LASF35
 779 0130 2C       		.sleb128 44
 780 0131 07       		.uleb128 0x7
 781 0132 47020000 		.4byte	.LASF36
 782 0136 2D       		.sleb128 45
 783 0137 07       		.uleb128 0x7
 784 0138 89000000 		.4byte	.LASF37
 785 013c 2E       		.sleb128 46
 786 013d 07       		.uleb128 0x7
 787 013e F5090000 		.4byte	.LASF38
 788 0142 2F       		.sleb128 47
 789 0143 07       		.uleb128 0x7
 790 0144 DA000000 		.4byte	.LASF39
 791 0148 30       		.sleb128 48
 792 0149 07       		.uleb128 0x7
 793 014a 9A030000 		.4byte	.LASF40
 794 014e 31       		.sleb128 49
 795 014f 07       		.uleb128 0x7
 796 0150 70020000 		.4byte	.LASF41
 797 0154 32       		.sleb128 50
 798 0155 07       		.uleb128 0x7
 799 0156 B7050000 		.4byte	.LASF42
 800 015a 33       		.sleb128 51
 801 015b 07       		.uleb128 0x7
 802 015c 57000000 		.4byte	.LASF43
 803 0160 C000     		.sleb128 64
 804 0162 07       		.uleb128 0x7
 805 0163 CF040000 		.4byte	.LASF44
 806 0167 C100     		.sleb128 65
 807 0169 07       		.uleb128 0x7
 808 016a D7090000 		.4byte	.LASF45
 809 016e C200     		.sleb128 66
 810 0170 07       		.uleb128 0x7
 811 0171 49010000 		.4byte	.LASF46
 812 0175 C300     		.sleb128 67
 813 0177 07       		.uleb128 0x7
 814 0178 36080000 		.4byte	.LASF47
 815 017c C400     		.sleb128 68
 816 017e 07       		.uleb128 0x7
 817 017f F1070000 		.4byte	.LASF48
 818 0183 C500     		.sleb128 69
 819 0185 07       		.uleb128 0x7
 820 0186 15010000 		.4byte	.LASF49
 821 018a C600     		.sleb128 70
 822 018c 07       		.uleb128 0x7
ARM GAS  C:\Users\Gaurav\AppData\Local\Temp\cca8P3k4.s 			page 19


 823 018d E0080000 		.4byte	.LASF50
 824 0191 C700     		.sleb128 71
 825 0193 07       		.uleb128 0x7
 826 0194 79040000 		.4byte	.LASF51
 827 0198 C800     		.sleb128 72
 828 019a 07       		.uleb128 0x7
 829 019b 2E020000 		.4byte	.LASF52
 830 019f C900     		.sleb128 73
 831 01a1 07       		.uleb128 0x7
 832 01a2 A9060000 		.4byte	.LASF53
 833 01a6 CA00     		.sleb128 74
 834 01a8 07       		.uleb128 0x7
 835 01a9 92010000 		.4byte	.LASF54
 836 01ad CB00     		.sleb128 75
 837 01af 07       		.uleb128 0x7
 838 01b0 5F040000 		.4byte	.LASF55
 839 01b4 CC00     		.sleb128 76
 840 01b6 07       		.uleb128 0x7
 841 01b7 24000000 		.4byte	.LASF56
 842 01bb CD00     		.sleb128 77
 843 01bd 07       		.uleb128 0x7
 844 01be 18080000 		.4byte	.LASF57
 845 01c2 CE00     		.sleb128 78
 846 01c4 07       		.uleb128 0x7
 847 01c5 F8030000 		.4byte	.LASF58
 848 01c9 CF00     		.sleb128 79
 849 01cb 07       		.uleb128 0x7
 850 01cc 20090000 		.4byte	.LASF59
 851 01d0 D000     		.sleb128 80
 852 01d2 07       		.uleb128 0x7
 853 01d3 C7060000 		.4byte	.LASF60
 854 01d7 D100     		.sleb128 81
 855 01d9 07       		.uleb128 0x7
 856 01da 19030000 		.4byte	.LASF61
 857 01de D200     		.sleb128 82
 858 01e0 07       		.uleb128 0x7
 859 01e1 B1020000 		.4byte	.LASF62
 860 01e5 D300     		.sleb128 83
 861 01e7 07       		.uleb128 0x7
 862 01e8 B1010000 		.4byte	.LASF63
 863 01ec D400     		.sleb128 84
 864 01ee 07       		.uleb128 0x7
 865 01ef B3090000 		.4byte	.LASF64
 866 01f3 D500     		.sleb128 85
 867 01f5 07       		.uleb128 0x7
 868 01f6 FE080000 		.4byte	.LASF65
 869 01fa D600     		.sleb128 86
 870 01fc 07       		.uleb128 0x7
 871 01fd B7080000 		.4byte	.LASF66
 872 0201 D700     		.sleb128 87
 873 0203 07       		.uleb128 0x7
 874 0204 51050000 		.4byte	.LASF67
 875 0208 D800     		.sleb128 88
 876 020a 07       		.uleb128 0x7
 877 020b C4030000 		.4byte	.LASF68
 878 020f F000     		.sleb128 112
 879 0211 07       		.uleb128 0x7
ARM GAS  C:\Users\Gaurav\AppData\Local\Temp\cca8P3k4.s 			page 20


 880 0212 A7070000 		.4byte	.LASF69
 881 0216 F100     		.sleb128 113
 882 0218 07       		.uleb128 0x7
 883 0219 7C060000 		.4byte	.LASF70
 884 021d F200     		.sleb128 114
 885 021f 07       		.uleb128 0x7
 886 0220 E9010000 		.4byte	.LASF71
 887 0224 F300     		.sleb128 115
 888 0226 07       		.uleb128 0x7
 889 0227 7C030000 		.4byte	.LASF72
 890 022b F400     		.sleb128 116
 891 022d 07       		.uleb128 0x7
 892 022e 13050000 		.4byte	.LASF73
 893 0232 F500     		.sleb128 117
 894 0234 07       		.uleb128 0x7
 895 0235 07020000 		.4byte	.LASF74
 896 0239 F600     		.sleb128 118
 897 023b 07       		.uleb128 0x7
 898 023c 88070000 		.4byte	.LASF75
 899 0240 F700     		.sleb128 119
 900 0242 07       		.uleb128 0x7
 901 0243 0B070000 		.4byte	.LASF76
 902 0247 F800     		.sleb128 120
 903 0249 07       		.uleb128 0x7
 904 024a 35070000 		.4byte	.LASF77
 905 024e F900     		.sleb128 121
 906 0250 07       		.uleb128 0x7
 907 0251 66080000 		.4byte	.LASF78
 908 0255 FA00     		.sleb128 122
 909 0257 07       		.uleb128 0x7
 910 0258 ED060000 		.4byte	.LASF79
 911 025c FA01     		.sleb128 250
 912 025e 07       		.uleb128 0x7
 913 025f 17040000 		.4byte	.LASF80
 914 0263 FB01     		.sleb128 251
 915 0265 07       		.uleb128 0x7
 916 0266 A9080000 		.4byte	.LASF81
 917 026a FF01     		.sleb128 255
 918 026c 00       		.byte	0
 919 026d 08       		.uleb128 0x8
 920 026e FB000000 		.4byte	.LASF86
 921 0272 01       		.byte	0x1
 922 0273 3F       		.byte	0x3f
 923 0274 5D000000 		.4byte	0x5d
 924 0278 00000000 		.4byte	.LFB37
 925 027c 28010000 		.4byte	.LFE37-.LFB37
 926 0280 01       		.uleb128 0x1
 927 0281 9C       		.byte	0x9c
 928 0282 ED020000 		.4byte	0x2ed
 929 0286 09       		.uleb128 0x9
 930 0287 87050000 		.4byte	.LASF82
 931 028b 01       		.byte	0x1
 932 028c 41       		.byte	0x41
 933 028d 6B000000 		.4byte	0x6b
 934 0291 02       		.uleb128 0x2
 935 0292 91       		.byte	0x91
 936 0293 6F       		.sleb128 -17
ARM GAS  C:\Users\Gaurav\AppData\Local\Temp\cca8P3k4.s 			page 21


 937 0294 09       		.uleb128 0x9
 938 0295 E3050000 		.4byte	.LASF83
 939 0299 01       		.byte	0x1
 940 029a 42       		.byte	0x42
 941 029b ED020000 		.4byte	0x2ed
 942 029f 02       		.uleb128 0x2
 943 02a0 91       		.byte	0x91
 944 02a1 64       		.sleb128 -28
 945 02a2 0A       		.uleb128 0xa
 946 02a3 7800     		.ascii	"x\000"
 947 02a5 01       		.byte	0x1
 948 02a6 43       		.byte	0x43
 949 02a7 A4000000 		.4byte	0xa4
 950 02ab 02       		.uleb128 0x2
 951 02ac 91       		.byte	0x91
 952 02ad 62       		.sleb128 -30
 953 02ae 0A       		.uleb128 0xa
 954 02af 7900     		.ascii	"y\000"
 955 02b1 01       		.byte	0x1
 956 02b2 43       		.byte	0x43
 957 02b3 A4000000 		.4byte	0xa4
 958 02b7 02       		.uleb128 0x2
 959 02b8 91       		.byte	0x91
 960 02b9 60       		.sleb128 -32
 961 02ba 0A       		.uleb128 0xa
 962 02bb 7A00     		.ascii	"z\000"
 963 02bd 01       		.byte	0x1
 964 02be 43       		.byte	0x43
 965 02bf A4000000 		.4byte	0xa4
 966 02c3 02       		.uleb128 0x2
 967 02c4 91       		.byte	0x91
 968 02c5 5E       		.sleb128 -34
 969 02c6 0B       		.uleb128 0xb
 970 02c7 26000000 		.4byte	.LBB2
 971 02cb F6000000 		.4byte	.LBE2-.LBB2
 972 02cf 09       		.uleb128 0x9
 973 02d0 36040000 		.4byte	.LASF84
 974 02d4 01       		.byte	0x1
 975 02d5 51       		.byte	0x51
 976 02d6 FD020000 		.4byte	0x2fd
 977 02da 02       		.uleb128 0x2
 978 02db 91       		.byte	0x91
 979 02dc 5C       		.sleb128 -36
 980 02dd 09       		.uleb128 0x9
 981 02de 3F090000 		.4byte	.LASF85
 982 02e2 01       		.byte	0x1
 983 02e3 53       		.byte	0x53
 984 02e4 77000000 		.4byte	0x77
 985 02e8 02       		.uleb128 0x2
 986 02e9 91       		.byte	0x91
 987 02ea 6C       		.sleb128 -20
 988 02eb 00       		.byte	0
 989 02ec 00       		.byte	0
 990 02ed 0C       		.uleb128 0xc
 991 02ee 6B000000 		.4byte	0x6b
 992 02f2 FD020000 		.4byte	0x2fd
 993 02f6 0D       		.uleb128 0xd
ARM GAS  C:\Users\Gaurav\AppData\Local\Temp\cca8P3k4.s 			page 22


 994 02f7 A9000000 		.4byte	0xa9
 995 02fb 07       		.byte	0x7
 996 02fc 00       		.byte	0
 997 02fd 0C       		.uleb128 0xc
 998 02fe 6B000000 		.4byte	0x6b
 999 0302 0D030000 		.4byte	0x30d
 1000 0306 0D       		.uleb128 0xd
 1001 0307 A9000000 		.4byte	0xa9
 1002 030b 00       		.byte	0
 1003 030c 00       		.byte	0
 1004 030d 0E       		.uleb128 0xe
 1005 030e 44040000 		.4byte	.LASF87
 1006 0312 01       		.byte	0x1
 1007 0313 7C       		.byte	0x7c
 1008 0314 00000000 		.4byte	.LFB38
 1009 0318 08010000 		.4byte	.LFE38-.LFB38
 1010 031c 01       		.uleb128 0x1
 1011 031d 9C       		.byte	0x9c
 1012 031e 34030000 		.4byte	0x334
 1013 0322 09       		.uleb128 0x9
 1014 0323 A2060000 		.4byte	.LASF88
 1015 0327 01       		.byte	0x1
 1016 0328 7E       		.byte	0x7e
 1017 0329 34030000 		.4byte	0x334
 1018 032d 05       		.uleb128 0x5
 1019 032e 03       		.byte	0x3
 1020 032f 00000000 		.4byte	buffer.8459
 1021 0333 00       		.byte	0
 1022 0334 0C       		.uleb128 0xc
 1023 0335 6B000000 		.4byte	0x6b
 1024 0339 44030000 		.4byte	0x344
 1025 033d 0D       		.uleb128 0xd
 1026 033e A9000000 		.4byte	0xa9
 1027 0342 01       		.byte	0x1
 1028 0343 00       		.byte	0
 1029 0344 0F       		.uleb128 0xf
 1030 0345 98060000 		.4byte	.LASF94
 1031 0349 01       		.byte	0x1
 1032 034a B5       		.byte	0xb5
 1033 034b 9D000000 		.4byte	0x9d
 1034 034f 00000000 		.4byte	.LFB39
 1035 0353 7C010000 		.4byte	.LFE39-.LFB39
 1036 0357 01       		.uleb128 0x1
 1037 0358 9C       		.byte	0x9c
 1038 0359 82030000 		.4byte	0x382
 1039 035d 10       		.uleb128 0x10
 1040 035e 7800     		.ascii	"x\000"
 1041 0360 01       		.byte	0x1
 1042 0361 B5       		.byte	0xb5
 1043 0362 77000000 		.4byte	0x77
 1044 0366 02       		.uleb128 0x2
 1045 0367 91       		.byte	0x91
 1046 0368 6E       		.sleb128 -18
 1047 0369 10       		.uleb128 0x10
 1048 036a 7900     		.ascii	"y\000"
 1049 036c 01       		.byte	0x1
 1050 036d B5       		.byte	0xb5
ARM GAS  C:\Users\Gaurav\AppData\Local\Temp\cca8P3k4.s 			page 23


 1051 036e 77000000 		.4byte	0x77
 1052 0372 02       		.uleb128 0x2
 1053 0373 91       		.byte	0x91
 1054 0374 6C       		.sleb128 -20
 1055 0375 10       		.uleb128 0x10
 1056 0376 7A00     		.ascii	"z\000"
 1057 0378 01       		.byte	0x1
 1058 0379 B5       		.byte	0xb5
 1059 037a 77000000 		.4byte	0x77
 1060 037e 02       		.uleb128 0x2
 1061 037f 91       		.byte	0x91
 1062 0380 6A       		.sleb128 -22
 1063 0381 00       		.byte	0
 1064 0382 11       		.uleb128 0x11
 1065 0383 71000000 		.4byte	.LASF89
 1066 0387 03       		.byte	0x3
 1067 0388 A502     		.2byte	0x2a5
 1068 038a 6B000000 		.4byte	0x6b
 1069 038e 12       		.uleb128 0x12
 1070 038f C9040000 		.4byte	.LASF90
 1071 0393 01       		.byte	0x1
 1072 0394 3D       		.byte	0x3d
 1073 0395 9F030000 		.4byte	0x39f
 1074 0399 05       		.uleb128 0x5
 1075 039a 03       		.byte	0x3
 1076 039b 00000000 		.4byte	color
 1077 039f 05       		.uleb128 0x5
 1078 03a0 9D000000 		.4byte	0x9d
 1079 03a4 00       		.byte	0
 1080              		.section	.debug_abbrev,"",%progbits
 1081              	.Ldebug_abbrev0:
 1082 0000 01       		.uleb128 0x1
 1083 0001 11       		.uleb128 0x11
 1084 0002 01       		.byte	0x1
 1085 0003 25       		.uleb128 0x25
 1086 0004 0E       		.uleb128 0xe
 1087 0005 13       		.uleb128 0x13
 1088 0006 0B       		.uleb128 0xb
 1089 0007 03       		.uleb128 0x3
 1090 0008 0E       		.uleb128 0xe
 1091 0009 1B       		.uleb128 0x1b
 1092 000a 0E       		.uleb128 0xe
 1093 000b 55       		.uleb128 0x55
 1094 000c 17       		.uleb128 0x17
 1095 000d 11       		.uleb128 0x11
 1096 000e 01       		.uleb128 0x1
 1097 000f 10       		.uleb128 0x10
 1098 0010 17       		.uleb128 0x17
 1099 0011 00       		.byte	0
 1100 0012 00       		.byte	0
 1101 0013 02       		.uleb128 0x2
 1102 0014 24       		.uleb128 0x24
 1103 0015 00       		.byte	0
 1104 0016 0B       		.uleb128 0xb
 1105 0017 0B       		.uleb128 0xb
 1106 0018 3E       		.uleb128 0x3e
 1107 0019 0B       		.uleb128 0xb
ARM GAS  C:\Users\Gaurav\AppData\Local\Temp\cca8P3k4.s 			page 24


 1108 001a 03       		.uleb128 0x3
 1109 001b 0E       		.uleb128 0xe
 1110 001c 00       		.byte	0
 1111 001d 00       		.byte	0
 1112 001e 03       		.uleb128 0x3
 1113 001f 24       		.uleb128 0x24
 1114 0020 00       		.byte	0
 1115 0021 0B       		.uleb128 0xb
 1116 0022 0B       		.uleb128 0xb
 1117 0023 3E       		.uleb128 0x3e
 1118 0024 0B       		.uleb128 0xb
 1119 0025 03       		.uleb128 0x3
 1120 0026 08       		.uleb128 0x8
 1121 0027 00       		.byte	0
 1122 0028 00       		.byte	0
 1123 0029 04       		.uleb128 0x4
 1124 002a 16       		.uleb128 0x16
 1125 002b 00       		.byte	0
 1126 002c 03       		.uleb128 0x3
 1127 002d 0E       		.uleb128 0xe
 1128 002e 3A       		.uleb128 0x3a
 1129 002f 0B       		.uleb128 0xb
 1130 0030 3B       		.uleb128 0x3b
 1131 0031 05       		.uleb128 0x5
 1132 0032 49       		.uleb128 0x49
 1133 0033 13       		.uleb128 0x13
 1134 0034 00       		.byte	0
 1135 0035 00       		.byte	0
 1136 0036 05       		.uleb128 0x5
 1137 0037 35       		.uleb128 0x35
 1138 0038 00       		.byte	0
 1139 0039 49       		.uleb128 0x49
 1140 003a 13       		.uleb128 0x13
 1141 003b 00       		.byte	0
 1142 003c 00       		.byte	0
 1143 003d 06       		.uleb128 0x6
 1144 003e 04       		.uleb128 0x4
 1145 003f 01       		.byte	0x1
 1146 0040 0B       		.uleb128 0xb
 1147 0041 0B       		.uleb128 0xb
 1148 0042 3A       		.uleb128 0x3a
 1149 0043 0B       		.uleb128 0xb
 1150 0044 3B       		.uleb128 0x3b
 1151 0045 05       		.uleb128 0x5
 1152 0046 01       		.uleb128 0x1
 1153 0047 13       		.uleb128 0x13
 1154 0048 00       		.byte	0
 1155 0049 00       		.byte	0
 1156 004a 07       		.uleb128 0x7
 1157 004b 28       		.uleb128 0x28
 1158 004c 00       		.byte	0
 1159 004d 03       		.uleb128 0x3
 1160 004e 0E       		.uleb128 0xe
 1161 004f 1C       		.uleb128 0x1c
 1162 0050 0D       		.uleb128 0xd
 1163 0051 00       		.byte	0
 1164 0052 00       		.byte	0
ARM GAS  C:\Users\Gaurav\AppData\Local\Temp\cca8P3k4.s 			page 25


 1165 0053 08       		.uleb128 0x8
 1166 0054 2E       		.uleb128 0x2e
 1167 0055 01       		.byte	0x1
 1168 0056 3F       		.uleb128 0x3f
 1169 0057 19       		.uleb128 0x19
 1170 0058 03       		.uleb128 0x3
 1171 0059 0E       		.uleb128 0xe
 1172 005a 3A       		.uleb128 0x3a
 1173 005b 0B       		.uleb128 0xb
 1174 005c 3B       		.uleb128 0x3b
 1175 005d 0B       		.uleb128 0xb
 1176 005e 49       		.uleb128 0x49
 1177 005f 13       		.uleb128 0x13
 1178 0060 11       		.uleb128 0x11
 1179 0061 01       		.uleb128 0x1
 1180 0062 12       		.uleb128 0x12
 1181 0063 06       		.uleb128 0x6
 1182 0064 40       		.uleb128 0x40
 1183 0065 18       		.uleb128 0x18
 1184 0066 9642     		.uleb128 0x2116
 1185 0068 19       		.uleb128 0x19
 1186 0069 01       		.uleb128 0x1
 1187 006a 13       		.uleb128 0x13
 1188 006b 00       		.byte	0
 1189 006c 00       		.byte	0
 1190 006d 09       		.uleb128 0x9
 1191 006e 34       		.uleb128 0x34
 1192 006f 00       		.byte	0
 1193 0070 03       		.uleb128 0x3
 1194 0071 0E       		.uleb128 0xe
 1195 0072 3A       		.uleb128 0x3a
 1196 0073 0B       		.uleb128 0xb
 1197 0074 3B       		.uleb128 0x3b
 1198 0075 0B       		.uleb128 0xb
 1199 0076 49       		.uleb128 0x49
 1200 0077 13       		.uleb128 0x13
 1201 0078 02       		.uleb128 0x2
 1202 0079 18       		.uleb128 0x18
 1203 007a 00       		.byte	0
 1204 007b 00       		.byte	0
 1205 007c 0A       		.uleb128 0xa
 1206 007d 34       		.uleb128 0x34
 1207 007e 00       		.byte	0
 1208 007f 03       		.uleb128 0x3
 1209 0080 08       		.uleb128 0x8
 1210 0081 3A       		.uleb128 0x3a
 1211 0082 0B       		.uleb128 0xb
 1212 0083 3B       		.uleb128 0x3b
 1213 0084 0B       		.uleb128 0xb
 1214 0085 49       		.uleb128 0x49
 1215 0086 13       		.uleb128 0x13
 1216 0087 02       		.uleb128 0x2
 1217 0088 18       		.uleb128 0x18
 1218 0089 00       		.byte	0
 1219 008a 00       		.byte	0
 1220 008b 0B       		.uleb128 0xb
 1221 008c 0B       		.uleb128 0xb
ARM GAS  C:\Users\Gaurav\AppData\Local\Temp\cca8P3k4.s 			page 26


 1222 008d 01       		.byte	0x1
 1223 008e 11       		.uleb128 0x11
 1224 008f 01       		.uleb128 0x1
 1225 0090 12       		.uleb128 0x12
 1226 0091 06       		.uleb128 0x6
 1227 0092 00       		.byte	0
 1228 0093 00       		.byte	0
 1229 0094 0C       		.uleb128 0xc
 1230 0095 01       		.uleb128 0x1
 1231 0096 01       		.byte	0x1
 1232 0097 49       		.uleb128 0x49
 1233 0098 13       		.uleb128 0x13
 1234 0099 01       		.uleb128 0x1
 1235 009a 13       		.uleb128 0x13
 1236 009b 00       		.byte	0
 1237 009c 00       		.byte	0
 1238 009d 0D       		.uleb128 0xd
 1239 009e 21       		.uleb128 0x21
 1240 009f 00       		.byte	0
 1241 00a0 49       		.uleb128 0x49
 1242 00a1 13       		.uleb128 0x13
 1243 00a2 2F       		.uleb128 0x2f
 1244 00a3 0B       		.uleb128 0xb
 1245 00a4 00       		.byte	0
 1246 00a5 00       		.byte	0
 1247 00a6 0E       		.uleb128 0xe
 1248 00a7 2E       		.uleb128 0x2e
 1249 00a8 01       		.byte	0x1
 1250 00a9 3F       		.uleb128 0x3f
 1251 00aa 19       		.uleb128 0x19
 1252 00ab 03       		.uleb128 0x3
 1253 00ac 0E       		.uleb128 0xe
 1254 00ad 3A       		.uleb128 0x3a
 1255 00ae 0B       		.uleb128 0xb
 1256 00af 3B       		.uleb128 0x3b
 1257 00b0 0B       		.uleb128 0xb
 1258 00b1 27       		.uleb128 0x27
 1259 00b2 19       		.uleb128 0x19
 1260 00b3 11       		.uleb128 0x11
 1261 00b4 01       		.uleb128 0x1
 1262 00b5 12       		.uleb128 0x12
 1263 00b6 06       		.uleb128 0x6
 1264 00b7 40       		.uleb128 0x40
 1265 00b8 18       		.uleb128 0x18
 1266 00b9 9642     		.uleb128 0x2116
 1267 00bb 19       		.uleb128 0x19
 1268 00bc 01       		.uleb128 0x1
 1269 00bd 13       		.uleb128 0x13
 1270 00be 00       		.byte	0
 1271 00bf 00       		.byte	0
 1272 00c0 0F       		.uleb128 0xf
 1273 00c1 2E       		.uleb128 0x2e
 1274 00c2 01       		.byte	0x1
 1275 00c3 3F       		.uleb128 0x3f
 1276 00c4 19       		.uleb128 0x19
 1277 00c5 03       		.uleb128 0x3
 1278 00c6 0E       		.uleb128 0xe
ARM GAS  C:\Users\Gaurav\AppData\Local\Temp\cca8P3k4.s 			page 27


 1279 00c7 3A       		.uleb128 0x3a
 1280 00c8 0B       		.uleb128 0xb
 1281 00c9 3B       		.uleb128 0x3b
 1282 00ca 0B       		.uleb128 0xb
 1283 00cb 27       		.uleb128 0x27
 1284 00cc 19       		.uleb128 0x19
 1285 00cd 49       		.uleb128 0x49
 1286 00ce 13       		.uleb128 0x13
 1287 00cf 11       		.uleb128 0x11
 1288 00d0 01       		.uleb128 0x1
 1289 00d1 12       		.uleb128 0x12
 1290 00d2 06       		.uleb128 0x6
 1291 00d3 40       		.uleb128 0x40
 1292 00d4 18       		.uleb128 0x18
 1293 00d5 9742     		.uleb128 0x2117
 1294 00d7 19       		.uleb128 0x19
 1295 00d8 01       		.uleb128 0x1
 1296 00d9 13       		.uleb128 0x13
 1297 00da 00       		.byte	0
 1298 00db 00       		.byte	0
 1299 00dc 10       		.uleb128 0x10
 1300 00dd 05       		.uleb128 0x5
 1301 00de 00       		.byte	0
 1302 00df 03       		.uleb128 0x3
 1303 00e0 08       		.uleb128 0x8
 1304 00e1 3A       		.uleb128 0x3a
 1305 00e2 0B       		.uleb128 0xb
 1306 00e3 3B       		.uleb128 0x3b
 1307 00e4 0B       		.uleb128 0xb
 1308 00e5 49       		.uleb128 0x49
 1309 00e6 13       		.uleb128 0x13
 1310 00e7 02       		.uleb128 0x2
 1311 00e8 18       		.uleb128 0x18
 1312 00e9 00       		.byte	0
 1313 00ea 00       		.byte	0
 1314 00eb 11       		.uleb128 0x11
 1315 00ec 34       		.uleb128 0x34
 1316 00ed 00       		.byte	0
 1317 00ee 03       		.uleb128 0x3
 1318 00ef 0E       		.uleb128 0xe
 1319 00f0 3A       		.uleb128 0x3a
 1320 00f1 0B       		.uleb128 0xb
 1321 00f2 3B       		.uleb128 0x3b
 1322 00f3 05       		.uleb128 0x5
 1323 00f4 49       		.uleb128 0x49
 1324 00f5 13       		.uleb128 0x13
 1325 00f6 3F       		.uleb128 0x3f
 1326 00f7 19       		.uleb128 0x19
 1327 00f8 3C       		.uleb128 0x3c
 1328 00f9 19       		.uleb128 0x19
 1329 00fa 00       		.byte	0
 1330 00fb 00       		.byte	0
 1331 00fc 12       		.uleb128 0x12
 1332 00fd 34       		.uleb128 0x34
 1333 00fe 00       		.byte	0
 1334 00ff 03       		.uleb128 0x3
 1335 0100 0E       		.uleb128 0xe
ARM GAS  C:\Users\Gaurav\AppData\Local\Temp\cca8P3k4.s 			page 28


 1336 0101 3A       		.uleb128 0x3a
 1337 0102 0B       		.uleb128 0xb
 1338 0103 3B       		.uleb128 0x3b
 1339 0104 0B       		.uleb128 0xb
 1340 0105 49       		.uleb128 0x49
 1341 0106 13       		.uleb128 0x13
 1342 0107 3F       		.uleb128 0x3f
 1343 0108 19       		.uleb128 0x19
 1344 0109 02       		.uleb128 0x2
 1345 010a 18       		.uleb128 0x18
 1346 010b 00       		.byte	0
 1347 010c 00       		.byte	0
 1348 010d 00       		.byte	0
 1349              		.section	.debug_aranges,"",%progbits
 1350 0000 2C000000 		.4byte	0x2c
 1351 0004 0200     		.2byte	0x2
 1352 0006 00000000 		.4byte	.Ldebug_info0
 1353 000a 04       		.byte	0x4
 1354 000b 00       		.byte	0
 1355 000c 0000     		.2byte	0
 1356 000e 0000     		.2byte	0
 1357 0010 00000000 		.4byte	.LFB37
 1358 0014 28010000 		.4byte	.LFE37-.LFB37
 1359 0018 00000000 		.4byte	.LFB38
 1360 001c 08010000 		.4byte	.LFE38-.LFB38
 1361 0020 00000000 		.4byte	.LFB39
 1362 0024 7C010000 		.4byte	.LFE39-.LFB39
 1363 0028 00000000 		.4byte	0
 1364 002c 00000000 		.4byte	0
 1365              		.section	.debug_ranges,"",%progbits
 1366              	.Ldebug_ranges0:
 1367 0000 00000000 		.4byte	.LFB37
 1368 0004 28010000 		.4byte	.LFE37
 1369 0008 00000000 		.4byte	.LFB38
 1370 000c 08010000 		.4byte	.LFE38
 1371 0010 00000000 		.4byte	.LFB39
 1372 0014 7C010000 		.4byte	.LFE39
 1373 0018 00000000 		.4byte	0
 1374 001c 00000000 		.4byte	0
 1375              		.section	.debug_line,"",%progbits
 1376              	.Ldebug_line0:
 1377 0000 7A010000 		.section	.debug_str,"MS",%progbits,1
 1377      02005B00 
 1377      00000201 
 1377      FB0E0D00 
 1377      01010101 
 1378              	.LASF25:
 1379 0000 4359424C 		.ascii	"CYBLE_EVT_GAP_PASSKEY_ENTRY_REQUEST\000"
 1379      455F4556 
 1379      545F4741 
 1379      505F5041 
 1379      53534B45 
 1380              	.LASF56:
 1381 0024 4359424C 		.ascii	"CYBLE_EVT_GATTC_WRITE_RSP\000"
 1381      455F4556 
 1381      545F4741 
 1381      5454435F 
ARM GAS  C:\Users\Gaurav\AppData\Local\Temp\cca8P3k4.s 			page 29


 1381      57524954 
 1382              	.LASF22:
 1383 003e 4359424C 		.ascii	"CYBLE_EVT_MEMORY_REQUEST\000"
 1383      455F4556 
 1383      545F4D45 
 1383      4D4F5259 
 1383      5F524551 
 1384              	.LASF43:
 1385 0057 4359424C 		.ascii	"CYBLE_EVT_GATTC_ERROR_RSP\000"
 1385      455F4556 
 1385      545F4741 
 1385      5454435F 
 1385      4552524F 
 1386              	.LASF89:
 1387 0071 6379426C 		.ascii	"cyBle_pendingFlashWrite\000"
 1387      655F7065 
 1387      6E64696E 
 1387      67466C61 
 1387      73685772 
 1388              	.LASF37:
 1389 0089 4359424C 		.ascii	"CYBLE_EVT_GAP_KEYPRESS_NOTIFICATION\000"
 1389      455F4556 
 1389      545F4741 
 1389      505F4B45 
 1389      59505245 
 1390              	.LASF2:
 1391 00ad 73686F72 		.ascii	"short int\000"
 1391      7420696E 
 1391      7400
 1392              	.LASF28:
 1393 00b7 4359424C 		.ascii	"CYBLE_EVT_GAP_AUTH_FAILED\000"
 1393      455F4556 
 1393      545F4741 
 1393      505F4155 
 1393      54485F46 
 1394              	.LASF15:
 1395 00d1 73697A65 		.ascii	"sizetype\000"
 1395      74797065 
 1395      00
 1396              	.LASF39:
 1397 00da 4359424C 		.ascii	"CYBLE_EVT_GAP_DATA_LENGTH_CHANGE\000"
 1397      455F4556 
 1397      545F4741 
 1397      505F4441 
 1397      54415F4C 
 1398              	.LASF86:
 1399 00fb 6D61696E 		.ascii	"main\000"
 1399      00
 1400              	.LASF20:
 1401 0100 4359424C 		.ascii	"CYBLE_EVT_HCI_STATUS\000"
 1401      455F4556 
 1401      545F4843 
 1401      495F5354 
 1401      41545553 
 1402              	.LASF49:
 1403 0115 4359424C 		.ascii	"CYBLE_EVT_GATTC_READ_BY_TYPE_RSP\000"
 1403      455F4556 
ARM GAS  C:\Users\Gaurav\AppData\Local\Temp\cca8P3k4.s 			page 30


 1403      545F4741 
 1403      5454435F 
 1403      52454144 
 1404              	.LASF17:
 1405 0136 4359424C 		.ascii	"CYBLE_EVT_STACK_ON\000"
 1405      455F4556 
 1405      545F5354 
 1405      41434B5F 
 1405      4F4E00
 1406              	.LASF46:
 1407 0149 4359424C 		.ascii	"CYBLE_EVT_GATTS_XCNHG_MTU_REQ\000"
 1407      455F4556 
 1407      545F4741 
 1407      5454535F 
 1407      58434E48 
 1408              	.LASF10:
 1409 0167 75696E74 		.ascii	"uint16\000"
 1409      313600
 1410              	.LASF35:
 1411 016e 4359424C 		.ascii	"CYBLE_EVT_GAP_KEYINFO_EXCHNGE_CMPLT\000"
 1411      455F4556 
 1411      545F4741 
 1411      505F4B45 
 1411      59494E46 
 1412              	.LASF54:
 1413 0192 4359424C 		.ascii	"CYBLE_EVT_GATTC_READ_MULTI_RSP\000"
 1413      455F4556 
 1413      545F4741 
 1413      5454435F 
 1413      52454144 
 1414              	.LASF63:
 1415 01b1 4359424C 		.ascii	"CYBLE_EVT_GATTS_HANDLE_VALUE_CNF\000"
 1415      455F4556 
 1415      545F4741 
 1415      5454535F 
 1415      48414E44 
 1416              	.LASF16:
 1417 01d2 4359424C 		.ascii	"CYBLE_EVT_HOST_INVALID\000"
 1417      455F4556 
 1417      545F484F 
 1417      53545F49 
 1417      4E56414C 
 1418              	.LASF71:
 1419 01e9 4359424C 		.ascii	"CYBLE_EVT_L2CAP_CBFC_CONN_IND\000"
 1419      455F4556 
 1419      545F4C32 
 1419      4341505F 
 1419      43424643 
 1420              	.LASF74:
 1421 0207 4359424C 		.ascii	"CYBLE_EVT_L2CAP_CBFC_DISCONN_CNF\000"
 1421      455F4556 
 1421      545F4C32 
 1421      4341505F 
 1421      43424643 
 1422              	.LASF12:
 1423 0228 666C6F61 		.ascii	"float\000"
 1423      7400
ARM GAS  C:\Users\Gaurav\AppData\Local\Temp\cca8P3k4.s 			page 31


 1424              	.LASF52:
 1425 022e 4359424C 		.ascii	"CYBLE_EVT_GATTC_READ_RSP\000"
 1425      455F4556 
 1425      545F4741 
 1425      5454435F 
 1425      52454144 
 1426              	.LASF36:
 1427 0247 4359424C 		.ascii	"CYBLE_EVT_GAP_NUMERIC_COMPARISON_REQUEST\000"
 1427      455F4556 
 1427      545F4741 
 1427      505F4E55 
 1427      4D455249 
 1428              	.LASF41:
 1429 0270 4359424C 		.ascii	"CYBLE_EVT_GAPC_DIRECT_ADV_REPORT\000"
 1429      455F4556 
 1429      545F4741 
 1429      50435F44 
 1429      49524543 
 1430              	.LASF7:
 1431 0291 6C6F6E67 		.ascii	"long long unsigned int\000"
 1431      206C6F6E 
 1431      6720756E 
 1431      7369676E 
 1431      65642069 
 1432              	.LASF4:
 1433 02a8 6C6F6E67 		.ascii	"long int\000"
 1433      20696E74 
 1433      00
 1434              	.LASF62:
 1435 02b1 4359424C 		.ascii	"CYBLE_EVT_GATTC_HANDLE_VALUE_IND\000"
 1435      455F4556 
 1435      545F4741 
 1435      5454435F 
 1435      48414E44 
 1436              	.LASF30:
 1437 02d2 4359424C 		.ascii	"CYBLE_EVT_GAP_DEVICE_CONNECTED\000"
 1437      455F4556 
 1437      545F4741 
 1437      505F4445 
 1437      56494345 
 1438              	.LASF29:
 1439 02f1 4359424C 		.ascii	"CYBLE_EVT_GAPP_ADVERTISEMENT_START_STOP\000"
 1439      455F4556 
 1439      545F4741 
 1439      50505F41 
 1439      44564552 
 1440              	.LASF61:
 1441 0319 4359424C 		.ascii	"CYBLE_EVT_GATTC_HANDLE_VALUE_NTF\000"
 1441      455F4556 
 1441      545F4741 
 1441      5454435F 
 1441      48414E44 
 1442              	.LASF21:
 1443 033a 4359424C 		.ascii	"CYBLE_EVT_STACK_BUSY_STATUS\000"
 1443      455F4556 
 1443      545F5354 
 1443      41434B5F 
ARM GAS  C:\Users\Gaurav\AppData\Local\Temp\cca8P3k4.s 			page 32


 1443      42555359 
 1444              	.LASF26:
 1445 0356 4359424C 		.ascii	"CYBLE_EVT_GAP_PASSKEY_DISPLAY_REQUEST\000"
 1445      455F4556 
 1445      545F4741 
 1445      505F5041 
 1445      53534B45 
 1446              	.LASF72:
 1447 037c 4359424C 		.ascii	"CYBLE_EVT_L2CAP_CBFC_CONN_CNF\000"
 1447      455F4556 
 1447      545F4C32 
 1447      4341505F 
 1447      43424643 
 1448              	.LASF40:
 1449 039a 4359424C 		.ascii	"CYBLE_EVT_GAP_ENHANCE_CONN_COMPLETE\000"
 1449      455F4556 
 1449      545F4741 
 1449      505F454E 
 1449      48414E43 
 1450              	.LASF9:
 1451 03be 75696E74 		.ascii	"uint8\000"
 1451      3800
 1452              	.LASF68:
 1453 03c4 4359424C 		.ascii	"CYBLE_EVT_L2CAP_CONN_PARAM_UPDATE_REQ\000"
 1453      455F4556 
 1453      545F4C32 
 1453      4341505F 
 1453      434F4E4E 
 1454              	.LASF1:
 1455 03ea 756E7369 		.ascii	"unsigned char\000"
 1455      676E6564 
 1455      20636861 
 1455      7200
 1456              	.LASF58:
 1457 03f8 4359424C 		.ascii	"CYBLE_EVT_GATTS_PREP_WRITE_REQ\000"
 1457      455F4556 
 1457      545F4741 
 1457      5454535F 
 1457      50524550 
 1458              	.LASF80:
 1459 0417 4359424C 		.ascii	"CYBLE_EVT_LE_PING_AUTH_TIMEOUT\000"
 1459      455F4556 
 1459      545F4C45 
 1459      5F50494E 
 1459      475F4155 
 1460              	.LASF84:
 1461 0436 49324372 		.ascii	"I2CreadBuffer\000"
 1461      65616442 
 1461      75666665 
 1461      7200
 1462              	.LASF87:
 1463 0444 77726974 		.ascii	"write_function\000"
 1463      655F6675 
 1463      6E637469 
 1463      6F6E00
 1464              	.LASF0:
 1465 0453 7369676E 		.ascii	"signed char\000"
ARM GAS  C:\Users\Gaurav\AppData\Local\Temp\cca8P3k4.s 			page 33


 1465      65642063 
 1465      68617200 
 1466              	.LASF55:
 1467 045f 4359424C 		.ascii	"CYBLE_EVT_GATTS_WRITE_REQ\000"
 1467      455F4556 
 1467      545F4741 
 1467      5454535F 
 1467      57524954 
 1468              	.LASF51:
 1469 0479 4359424C 		.ascii	"CYBLE_EVT_GATTC_FIND_BY_TYPE_VALUE_RSP\000"
 1469      455F4556 
 1469      545F4741 
 1469      5454435F 
 1469      46494E44 
 1470              	.LASF27:
 1471 04a0 4359424C 		.ascii	"CYBLE_EVT_GAP_AUTH_COMPLETE\000"
 1471      455F4556 
 1471      545F4741 
 1471      505F4155 
 1471      54485F43 
 1472              	.LASF8:
 1473 04bc 756E7369 		.ascii	"unsigned int\000"
 1473      676E6564 
 1473      20696E74 
 1473      00
 1474              	.LASF90:
 1475 04c9 636F6C6F 		.ascii	"color\000"
 1475      7200
 1476              	.LASF44:
 1477 04cf 4359424C 		.ascii	"CYBLE_EVT_GATT_CONNECT_IND\000"
 1477      455F4556 
 1477      545F4741 
 1477      54545F43 
 1477      4F4E4E45 
 1478              	.LASF5:
 1479 04ea 6C6F6E67 		.ascii	"long unsigned int\000"
 1479      20756E73 
 1479      69676E65 
 1479      6420696E 
 1479      7400
 1480              	.LASF24:
 1481 04fc 4359424C 		.ascii	"CYBLE_EVT_GAP_AUTH_REQ\000"
 1481      455F4556 
 1481      545F4741 
 1481      505F4155 
 1481      54485F52 
 1482              	.LASF73:
 1483 0513 4359424C 		.ascii	"CYBLE_EVT_L2CAP_CBFC_DISCONN_IND\000"
 1483      455F4556 
 1483      545F4C32 
 1483      4341505F 
 1483      43424643 
 1484              	.LASF32:
 1485 0534 4359424C 		.ascii	"CYBLE_EVT_GAP_ENCRYPT_CHANGE\000"
 1485      455F4556 
 1485      545F4741 
 1485      505F454E 
ARM GAS  C:\Users\Gaurav\AppData\Local\Temp\cca8P3k4.s 			page 34


 1485      43525950 
 1486              	.LASF67:
 1487 0551 4359424C 		.ascii	"CYBLE_EVT_GATTC_LONG_PROCEDURE_END\000"
 1487      455F4556 
 1487      545F4741 
 1487      5454435F 
 1487      4C4F4E47 
 1488              	.LASF3:
 1489 0574 73686F72 		.ascii	"short unsigned int\000"
 1489      7420756E 
 1489      7369676E 
 1489      65642069 
 1489      6E7400
 1490              	.LASF82:
 1491 0587 73746174 		.ascii	"status\000"
 1491      757300
 1492              	.LASF33:
 1493 058e 4359424C 		.ascii	"CYBLE_EVT_GAP_CONNECTION_UPDATE_COMPLETE\000"
 1493      455F4556 
 1493      545F4741 
 1493      505F434F 
 1493      4E4E4543 
 1494              	.LASF42:
 1495 05b7 4359424C 		.ascii	"CYBLE_EVT_GAP_SMP_NEGOTIATED_AUTH_INFO\000"
 1495      455F4556 
 1495      545F4741 
 1495      505F534D 
 1495      505F4E45 
 1496              	.LASF14:
 1497 05de 63686172 		.ascii	"char\000"
 1497      00
 1498              	.LASF83:
 1499 05e3 72656164 		.ascii	"readbuffer\000"
 1499      62756666 
 1499      657200
 1500              	.LASF91:
 1501 05ee 474E5520 		.ascii	"GNU C 4.9.3 20150303 (release) [ARM/embedded-4_9-br"
 1501      4320342E 
 1501      392E3320 
 1501      32303135 
 1501      30333033 
 1502 0621 616E6368 		.ascii	"anch revision 221220] -mcpu=cortex-m0 -mthumb -g -O"
 1502      20726576 
 1502      6973696F 
 1502      6E203232 
 1502      31323230 
 1503 0654 30202D66 		.ascii	"0 -ffunction-sections -ffat-lto-objects\000"
 1503      66756E63 
 1503      74696F6E 
 1503      2D736563 
 1503      74696F6E 
 1504              	.LASF70:
 1505 067c 4359424C 		.ascii	"CYBLE_EVT_L2CAP_COMMAND_REJ\000"
 1505      455F4556 
 1505      545F4C32 
 1505      4341505F 
 1505      434F4D4D 
ARM GAS  C:\Users\Gaurav\AppData\Local\Temp\cca8P3k4.s 			page 35


 1506              	.LASF94:
 1507 0698 636F6C6F 		.ascii	"color_map\000"
 1507      725F6D61 
 1507      7000
 1508              	.LASF88:
 1509 06a2 62756666 		.ascii	"buffer\000"
 1509      657200
 1510              	.LASF53:
 1511 06a9 4359424C 		.ascii	"CYBLE_EVT_GATTC_READ_BLOB_RSP\000"
 1511      455F4556 
 1511      545F4741 
 1511      5454435F 
 1511      52454144 
 1512              	.LASF60:
 1513 06c7 4359424C 		.ascii	"CYBLE_EVT_GATTC_EXEC_WRITE_RSP\000"
 1513      455F4556 
 1513      545F4741 
 1513      5454435F 
 1513      45584543 
 1514              	.LASF11:
 1515 06e6 75696E74 		.ascii	"uint32\000"
 1515      333200
 1516              	.LASF79:
 1517 06ed 4359424C 		.ascii	"CYBLE_EVT_PENDING_FLASH_WRITE\000"
 1517      455F4556 
 1517      545F5045 
 1517      4E44494E 
 1517      475F464C 
 1518              	.LASF76:
 1519 070b 4359424C 		.ascii	"CYBLE_EVT_L2CAP_CBFC_RX_CREDIT_IND\000"
 1519      455F4556 
 1519      545F4C32 
 1519      4341505F 
 1519      43424643 
 1520              	.LASF13:
 1521 072e 646F7562 		.ascii	"double\000"
 1521      6C6500
 1522              	.LASF77:
 1523 0735 4359424C 		.ascii	"CYBLE_EVT_L2CAP_CBFC_TX_CREDIT_IND\000"
 1523      455F4556 
 1523      545F4C32 
 1523      4341505F 
 1523      43424643 
 1524              	.LASF6:
 1525 0758 6C6F6E67 		.ascii	"long long int\000"
 1525      206C6F6E 
 1525      6720696E 
 1525      7400
 1526              	.LASF92:
 1527 0766 2E5C6D61 		.ascii	".\\main.c\000"
 1527      696E2E63 
 1527      00
 1528              	.LASF19:
 1529 076f 4359424C 		.ascii	"CYBLE_EVT_HARDWARE_ERROR\000"
 1529      455F4556 
 1529      545F4841 
 1529      52445741 
ARM GAS  C:\Users\Gaurav\AppData\Local\Temp\cca8P3k4.s 			page 36


 1529      52455F45 
 1530              	.LASF75:
 1531 0788 4359424C 		.ascii	"CYBLE_EVT_L2CAP_CBFC_DATA_READ\000"
 1531      455F4556 
 1531      545F4C32 
 1531      4341505F 
 1531      43424643 
 1532              	.LASF69:
 1533 07a7 4359424C 		.ascii	"CYBLE_EVT_L2CAP_CONN_PARAM_UPDATE_RSP\000"
 1533      455F4556 
 1533      545F4C32 
 1533      4341505F 
 1533      434F4E4E 
 1534              	.LASF23:
 1535 07cd 4359424C 		.ascii	"CYBLE_EVT_GAPC_SCAN_PROGRESS_RESULT\000"
 1535      455F4556 
 1535      545F4741 
 1535      50435F53 
 1535      43414E5F 
 1536              	.LASF48:
 1537 07f1 4359424C 		.ascii	"CYBLE_EVT_GATTC_READ_BY_GROUP_TYPE_RSP\000"
 1537      455F4556 
 1537      545F4741 
 1537      5454435F 
 1537      52454144 
 1538              	.LASF57:
 1539 0818 4359424C 		.ascii	"CYBLE_EVT_GATTS_WRITE_CMD_REQ\000"
 1539      455F4556 
 1539      545F4741 
 1539      5454535F 
 1539      57524954 
 1540              	.LASF47:
 1541 0836 4359424C 		.ascii	"CYBLE_EVT_GATTC_XCHNG_MTU_RSP\000"
 1541      455F4556 
 1541      545F4741 
 1541      5454435F 
 1541      5843484E 
 1542              	.LASF18:
 1543 0854 4359424C 		.ascii	"CYBLE_EVT_TIMEOUT\000"
 1543      455F4556 
 1543      545F5449 
 1543      4D454F55 
 1543      5400
 1544              	.LASF78:
 1545 0866 4359424C 		.ascii	"CYBLE_EVT_L2CAP_CBFC_DATA_WRITE_IND\000"
 1545      455F4556 
 1545      545F4C32 
 1545      4341505F 
 1545      43424643 
 1546              	.LASF34:
 1547 088a 4359424C 		.ascii	"CYBLE_EVT_GAPC_SCAN_START_STOP\000"
 1547      455F4556 
 1547      545F4741 
 1547      50435F53 
 1547      43414E5F 
 1548              	.LASF81:
 1549 08a9 4359424C 		.ascii	"CYBLE_EVT_MAX\000"
ARM GAS  C:\Users\Gaurav\AppData\Local\Temp\cca8P3k4.s 			page 37


 1549      455F4556 
 1549      545F4D41 
 1549      5800
 1550              	.LASF66:
 1551 08b7 4359424C 		.ascii	"CYBLE_EVT_GATTS_READ_CHAR_VAL_ACCESS_REQ\000"
 1551      455F4556 
 1551      545F4741 
 1551      5454535F 
 1551      52454144 
 1552              	.LASF50:
 1553 08e0 4359424C 		.ascii	"CYBLE_EVT_GATTC_FIND_INFO_RSP\000"
 1553      455F4556 
 1553      545F4741 
 1553      5454435F 
 1553      46494E44 
 1554              	.LASF65:
 1555 08fe 4359424C 		.ascii	"CYBLE_EVT_GATTC_STOP_CMD_COMPLETE\000"
 1555      455F4556 
 1555      545F4741 
 1555      5454435F 
 1555      53544F50 
 1556              	.LASF59:
 1557 0920 4359424C 		.ascii	"CYBLE_EVT_GATTS_EXEC_WRITE_REQ\000"
 1557      455F4556 
 1557      545F4741 
 1557      5454535F 
 1557      45584543 
 1558              	.LASF85:
 1559 093f 75694368 		.ascii	"uiChangeStatus\000"
 1559      616E6765 
 1559      53746174 
 1559      757300
 1560              	.LASF31:
 1561 094e 4359424C 		.ascii	"CYBLE_EVT_GAP_DEVICE_DISCONNECTED\000"
 1561      455F4556 
 1561      545F4741 
 1561      505F4445 
 1561      56494345 
 1562              	.LASF93:
 1563 0970 433A5C55 		.ascii	"C:\\Users\\Gaurav\\Documents\\PSoC Creator\\BLE MID"
 1563      73657273 
 1563      5C476175 
 1563      7261765C 
 1563      446F6375 
 1564 099e 495C424C 		.ascii	"I\\BLE_MIDI_iOS.cydsn\000"
 1564      455F4D49 
 1564      44495F69 
 1564      4F532E63 
 1564      7964736E 
 1565              	.LASF64:
 1566 09b3 4359424C 		.ascii	"CYBLE_EVT_GATTS_DATA_SIGNED_CMD_REQ\000"
 1566      455F4556 
 1566      545F4741 
 1566      5454535F 
 1566      44415441 
 1567              	.LASF45:
 1568 09d7 4359424C 		.ascii	"CYBLE_EVT_GATT_DISCONNECT_IND\000"
ARM GAS  C:\Users\Gaurav\AppData\Local\Temp\cca8P3k4.s 			page 38


 1568      455F4556 
 1568      545F4741 
 1568      54545F44 
 1568      4953434F 
 1569              	.LASF38:
 1570 09f5 4359424C 		.ascii	"CYBLE_EVT_GAP_OOB_GENERATED_NOTIFICATION\000"
 1570      455F4556 
 1570      545F4741 
 1570      505F4F4F 
 1570      425F4745 
 1571              		.ident	"GCC: (GNU Tools for ARM Embedded Processors) 4.9.3 20150303 (release) [ARM/embedded-4_9-br
