ARM GAS  C:\Users\Gaurav\AppData\Local\Temp\ccancYRv.s 			page 1


   1              		.cpu cortex-m0
   2              		.fpu softvfp
   3              		.eabi_attribute 20, 1
   4              		.eabi_attribute 21, 1
   5              		.eabi_attribute 23, 3
   6              		.eabi_attribute 24, 1
   7              		.eabi_attribute 25, 1
   8              		.eabi_attribute 26, 1
   9              		.eabi_attribute 30, 6
  10              		.eabi_attribute 34, 0
  11              		.eabi_attribute 18, 4
  12              		.code	16
  13              		.file	"UI.c"
  14              		.text
  15              	.Ltext0:
  16              		.cfi_sections	.debug_frame
  17              		.global	uiState
  18              		.bss
  19              		.type	uiState, %object
  20              		.size	uiState, 1
  21              	uiState:
  22 0000 00       		.space	1
  23              		.global	currentSliderPosition
  24              		.data
  25              		.align	1
  26              		.type	currentSliderPosition, %object
  27              		.size	currentSliderPosition, 2
  28              	currentSliderPosition:
  29 0000 FFFF     		.short	-1
  30              		.global	currentButtonPosition
  31              		.align	1
  32              		.type	currentButtonPosition, %object
  33              		.size	currentButtonPosition, 2
  34              	currentButtonPosition:
  35 0002 FFFF     		.short	-1
  36              		.global	previousButtonPosition
  37              		.align	1
  38              		.type	previousButtonPosition, %object
  39              		.size	previousButtonPosition, 2
  40              	previousButtonPosition:
  41 0004 FFFF     		.short	-1
  42              		.global	previousSliderPosition
  43              		.align	1
  44              		.type	previousSliderPosition, %object
  45              		.size	previousSliderPosition, 2
  46              	previousSliderPosition:
  47 0006 FFFF     		.short	-1
  48              		.comm	uiOutputMailbox,5,4
  49              		.section	.text.UI_Start,"ax",%progbits
  50              		.align	2
  51              		.global	UI_Start
  52              		.code	16
  53              		.thumb_func
  54              		.type	UI_Start, %function
  55              	UI_Start:
  56              	.LFB37:
  57              		.file 1 ".\\UI.c"
ARM GAS  C:\Users\Gaurav\AppData\Local\Temp\ccancYRv.s 			page 2


   1:.\UI.c        **** /*******************************************************************************
   2:.\UI.c        **** * File Name: UI.c
   3:.\UI.c        **** *
   4:.\UI.c        **** * Description:
   5:.\UI.c        **** *  This file contains CapSense UI routines and implementation
   6:.\UI.c        **** * 
   7:.\UI.c        **** ********************************************************************************
   8:.\UI.c        **** * Copyright 2015, Cypress Semiconductor Corporation.  All rights reserved.
   9:.\UI.c        **** * You may use this file only in accordance with the license, terms, conditions,
  10:.\UI.c        **** * disclaimers, and limitations in the end user license agreement accompanying
  11:.\UI.c        **** * the software package with which this file was provided.
  12:.\UI.c        **** *******************************************************************************/
  13:.\UI.c        **** 
  14:.\UI.c        **** #include <Configuration.h>
  15:.\UI.c        **** #include <Project.h>
  16:.\UI.c        **** #include <UI.h>
  17:.\UI.c        **** 
  18:.\UI.c        **** /***************************************
  19:.\UI.c        **** *        Global and Static variables
  20:.\UI.c        **** ***************************************/
  21:.\UI.c        **** UI_STATE uiState = UI_IDLE_STATE;
  22:.\UI.c        **** uint16 currentSliderPosition = NO_FINGER_ON_SLIDER;
  23:.\UI.c        **** uint16 currentButtonPosition = NO_FINGER_ON_BUTTON;
  24:.\UI.c        **** uint16 previousButtonPosition = NO_FINGER_ON_BUTTON;
  25:.\UI.c        **** uint16 previousSliderPosition = NO_FINGER_ON_SLIDER;
  26:.\UI.c        **** UI_OUTPUT_MAILBOX_T uiOutputMailbox;
  27:.\UI.c        **** 
  28:.\UI.c        **** 
  29:.\UI.c        **** 
  30:.\UI.c        **** 
  31:.\UI.c        **** /*******************************************************************************
  32:.\UI.c        **** * Function Name: UI_Start
  33:.\UI.c        **** ********************************************************************************
  34:.\UI.c        **** * Summary:
  35:.\UI.c        **** *        Start the UI components and systems
  36:.\UI.c        **** *
  37:.\UI.c        **** * Parameters:
  38:.\UI.c        **** *  void
  39:.\UI.c        **** *
  40:.\UI.c        **** * Return:
  41:.\UI.c        **** *  void
  42:.\UI.c        **** *
  43:.\UI.c        **** *******************************************************************************/
  44:.\UI.c        **** void UI_Start(void)
  45:.\UI.c        **** {
  58              		.loc 1 45 0
  59              		.cfi_startproc
  60 0000 80B5     		push	{r7, lr}
  61              		.cfi_def_cfa_offset 8
  62              		.cfi_offset 7, -8
  63              		.cfi_offset 14, -4
  64 0002 00AF     		add	r7, sp, #0
  65              		.cfi_def_cfa_register 7
  46:.\UI.c        ****     uint8 loopIndex;
  47:.\UI.c        ****     
  48:.\UI.c        **** #if CAPSENSE_ENABLED
  49:.\UI.c        **** 	/*Initialize CapSense component and initialize baselines*/
ARM GAS  C:\Users\Gaurav\AppData\Local\Temp\ccancYRv.s 			page 3


  50:.\UI.c        **** 	CapSense_Start();
  51:.\UI.c        **** 	CapSense_InitializeAllBaselines();
  52:.\UI.c        ****     
  53:.\UI.c        ****     uiState = UI_IDLE_STATE;
  54:.\UI.c        **** #endif
  55:.\UI.c        **** 
  56:.\UI.c        ****     /* I2C communication has started here */
  57:.\UI.c        ****     I2C_1_Start();  
  66              		.loc 1 57 0
  67 0004 FFF7FEFF 		bl	I2C_1_Start
  58:.\UI.c        ****     
  59:.\UI.c        ****     uiOutputMailbox.outputMailIndex = 0;
  68              		.loc 1 59 0
  69 0008 034B     		ldr	r3, .L2
  70 000a 0022     		mov	r2, #0
  71 000c 1A70     		strb	r2, [r3]
  60:.\UI.c        ****     
  61:.\UI.c        ****     PWM_Start();
  72              		.loc 1 61 0
  73 000e FFF7FEFF 		bl	PWM_Start
  62:.\UI.c        **** }
  74              		.loc 1 62 0
  75 0012 BD46     		mov	sp, r7
  76              		@ sp needed
  77 0014 80BD     		pop	{r7, pc}
  78              	.L3:
  79 0016 C046     		.align	2
  80              	.L2:
  81 0018 00000000 		.word	uiOutputMailbox
  82              		.cfi_endproc
  83              	.LFE37:
  84              		.size	UI_Start, .-UI_Start
  85              		.section	.text.UIInput_Run,"ax",%progbits
  86              		.align	2
  87              		.global	UIInput_Run
  88              		.code	16
  89              		.thumb_func
  90              		.type	UIInput_Run, %function
  91              	UIInput_Run:
  92              	.LFB38:
  63:.\UI.c        **** 
  64:.\UI.c        **** /*******************************************************************************
  65:.\UI.c        **** * Function Name: UIInput_Run
  66:.\UI.c        **** ********************************************************************************
  67:.\UI.c        **** * Summary:
  68:.\UI.c        **** *        Runs the user interface input engine for the MIDI interface
  69:.\UI.c        **** *
  70:.\UI.c        **** * Parameters:
  71:.\UI.c        **** *  void
  72:.\UI.c        **** *
  73:.\UI.c        **** * Return:
  74:.\UI.c        **** *  UI input status change (if any)
  75:.\UI.c        **** *
  76:.\UI.c        **** *******************************************************************************/
  77:.\UI.c        **** uint16 UIInput_Run(void)
  78:.\UI.c        **** {
  93              		.loc 1 78 0
ARM GAS  C:\Users\Gaurav\AppData\Local\Temp\ccancYRv.s 			page 4


  94              		.cfi_startproc
  95 0000 80B5     		push	{r7, lr}
  96              		.cfi_def_cfa_offset 8
  97              		.cfi_offset 7, -8
  98              		.cfi_offset 14, -4
  99 0002 82B0     		sub	sp, sp, #8
 100              		.cfi_def_cfa_offset 16
 101 0004 00AF     		add	r7, sp, #0
 102              		.cfi_def_cfa_register 7
  79:.\UI.c        ****     uint16 uiChangeStatus = NO_UI_STATE_CHANGE;
 103              		.loc 1 79 0
 104 0006 BB1D     		add	r3, r7, #6
 105 0008 1222     		mov	r2, #18
 106 000a 5242     		neg	r2, r2
 107 000c 1A80     		strh	r2, [r3]
  80:.\UI.c        ****     
  81:.\UI.c        ****     if(IsUIEnabled())
 108              		.loc 1 81 0
 109 000e FFF7FEFF 		bl	IsMidiEnabled
 110 0012 031E     		sub	r3, r0, #0
 111 0014 37D0     		beq	.L5
  82:.\UI.c        ****     {
  83:.\UI.c        **** #if CAPSENSE_ENABLED
  84:.\UI.c        ****         switch(uiState)
  85:.\UI.c        ****         {
  86:.\UI.c        ****             case UI_IDLE_STATE:
  87:.\UI.c        **** #if CAPSENSE_SLIDER                
  88:.\UI.c        ****                 CapSense_ScanWidget(CapSense_LINEARSLIDER0__LS); /* Initiate the sensor scan */
  89:.\UI.c        **** #else
  90:.\UI.c        ****                 CapSense_ScanEnabledWidgets(); /* Initiate the sensor scan */
  91:.\UI.c        **** #endif 
  92:.\UI.c        **** 
  93:.\UI.c        ****                 uiState = UI_SCANNING_STATE;
  94:.\UI.c        ****             break;
  95:.\UI.c        ****             
  96:.\UI.c        ****             case UI_SCANNING_STATE:
  97:.\UI.c        ****                 if(CapSense_IsBusy() == 0)
  98:.\UI.c        ****                 {
  99:.\UI.c        ****                     CapSense_UpdateEnabledBaselines(); /* Keep the baseline updated with current pe
 100:.\UI.c        ****                     
 101:.\UI.c        **** #if CAPSENSE_SLIDER                     
 102:.\UI.c        ****                     currentSliderPosition = CapSense_GetCentroidPos(CapSense_LINEARSLIDER0__LS);
 103:.\UI.c        ****                     
 104:.\UI.c        ****                     if(currentSliderPosition != NO_FINGER_ON_SLIDER)
 105:.\UI.c        ****                     {
 106:.\UI.c        ****                         currentSliderPosition =  currentSliderPosition / CENTROID_DIVIDE_FACTOR;
 107:.\UI.c        ****                     }
 108:.\UI.c        ****                     
 109:.\UI.c        ****                     uiState = UI_RESULT_STATE;  
 110:.\UI.c        **** #else
 111:.\UI.c        ****                     if(CapSense_CheckIsWidgetActive(CapSense_NOTE1__BTN))
 112:.\UI.c        ****                     {
 113:.\UI.c        ****                         currentButtonPosition = NOTE1_VALUE;    
 114:.\UI.c        ****                     }
 115:.\UI.c        ****                     else if(CapSense_CheckIsWidgetActive(CapSense_NOTE2__BTN))
 116:.\UI.c        ****                     {
 117:.\UI.c        ****                         currentButtonPosition = NOTE2_VALUE;    
ARM GAS  C:\Users\Gaurav\AppData\Local\Temp\ccancYRv.s 			page 5


 118:.\UI.c        ****                     }
 119:.\UI.c        ****                     else if(CapSense_CheckIsWidgetActive(CapSense_NOTE3__BTN))
 120:.\UI.c        ****                     {
 121:.\UI.c        ****                         currentButtonPosition = NOTE3_VALUE;    
 122:.\UI.c        ****                     }
 123:.\UI.c        ****                     else if(CapSense_CheckIsWidgetActive(CapSense_NOTE4__BTN))
 124:.\UI.c        ****                     {
 125:.\UI.c        ****                         currentButtonPosition = NOTE4_VALUE;    
 126:.\UI.c        ****                     }
 127:.\UI.c        ****                     else if(CapSense_CheckIsWidgetActive(CapSense_NOTE5__BTN))
 128:.\UI.c        ****                     {
 129:.\UI.c        ****                         currentButtonPosition = NOTE5_VALUE;    
 130:.\UI.c        ****                     }
 131:.\UI.c        ****                     else
 132:.\UI.c        ****                     {
 133:.\UI.c        ****                         currentButtonPosition = NO_FINGER_ON_SLIDER; 
 134:.\UI.c        ****                     }
 135:.\UI.c        ****                     
 136:.\UI.c        ****                     uiState = UI_RESULT_STATE;
 137:.\UI.c        **** #endif    
 138:.\UI.c        ****                 }
 139:.\UI.c        ****             break;
 140:.\UI.c        ****             
 141:.\UI.c        ****             case UI_RESULT_STATE:
 142:.\UI.c        **** #if CAPSENSE_SLIDER                           
 143:.\UI.c        ****                 if(currentSliderPosition != previousSliderPosition)
 144:.\UI.c        ****                 {
 145:.\UI.c        ****                     uiChangeStatus = currentSliderPosition;
 146:.\UI.c        ****                     previousSliderPosition = currentSliderPosition;
 147:.\UI.c        ****                 }
 148:.\UI.c        **** #else
 149:.\UI.c        ****                 if(currentButtonPosition != previousButtonPosition)
 150:.\UI.c        ****                 {
 151:.\UI.c        ****                     uiChangeStatus = currentButtonPosition;
 152:.\UI.c        ****                     previousButtonPosition = currentButtonPosition;
 153:.\UI.c        ****                 }
 154:.\UI.c        **** #endif    
 155:.\UI.c        ****                 uiState = UI_IDLE_STATE;  
 156:.\UI.c        ****             break;
 157:.\UI.c        ****                 
 158:.\UI.c        ****             default:
 159:.\UI.c        ****             break;
 160:.\UI.c        ****         }
 161:.\UI.c        **** #endif 
 162:.\UI.c        **** 
 163:.\UI.c        ****         if (color == 'R')
 112              		.loc 1 163 0
 113 0016 1F4B     		ldr	r3, .L13
 114 0018 1B78     		ldrb	r3, [r3]
 115 001a DBB2     		uxtb	r3, r3
 116 001c 522B     		cmp	r3, #82
 117 001e 03D1     		bne	.L6
 164:.\UI.c        ****         {
 165:.\UI.c        ****             currentButtonPosition = NOTE1_VALUE;
 118              		.loc 1 165 0
 119 0020 1D4B     		ldr	r3, .L13+4
 120 0022 0022     		mov	r2, #0
ARM GAS  C:\Users\Gaurav\AppData\Local\Temp\ccancYRv.s 			page 6


 121 0024 1A80     		strh	r2, [r3]
 122 0026 2AE0     		b	.L7
 123              	.L6:
 166:.\UI.c        ****         }
 167:.\UI.c        ****         else if (color == 'G')
 124              		.loc 1 167 0
 125 0028 1A4B     		ldr	r3, .L13
 126 002a 1B78     		ldrb	r3, [r3]
 127 002c DBB2     		uxtb	r3, r3
 128 002e 472B     		cmp	r3, #71
 129 0030 03D1     		bne	.L8
 168:.\UI.c        ****         {
 169:.\UI.c        ****             currentButtonPosition = NOTE2_VALUE;
 130              		.loc 1 169 0
 131 0032 194B     		ldr	r3, .L13+4
 132 0034 0122     		mov	r2, #1
 133 0036 1A80     		strh	r2, [r3]
 134 0038 21E0     		b	.L7
 135              	.L8:
 170:.\UI.c        ****         }
 171:.\UI.c        ****         else if (color == 'b')
 136              		.loc 1 171 0
 137 003a 164B     		ldr	r3, .L13
 138 003c 1B78     		ldrb	r3, [r3]
 139 003e DBB2     		uxtb	r3, r3
 140 0040 622B     		cmp	r3, #98
 141 0042 03D1     		bne	.L9
 172:.\UI.c        ****         {
 173:.\UI.c        ****             currentButtonPosition = NOTE3_VALUE;
 142              		.loc 1 173 0
 143 0044 144B     		ldr	r3, .L13+4
 144 0046 0222     		mov	r2, #2
 145 0048 1A80     		strh	r2, [r3]
 146 004a 18E0     		b	.L7
 147              	.L9:
 174:.\UI.c        ****         }
 175:.\UI.c        ****         else if (color == 'B')
 148              		.loc 1 175 0
 149 004c 114B     		ldr	r3, .L13
 150 004e 1B78     		ldrb	r3, [r3]
 151 0050 DBB2     		uxtb	r3, r3
 152 0052 422B     		cmp	r3, #66
 153 0054 03D1     		bne	.L10
 176:.\UI.c        ****         {
 177:.\UI.c        ****             currentButtonPosition = NOTE4_VALUE;
 154              		.loc 1 177 0
 155 0056 104B     		ldr	r3, .L13+4
 156 0058 0322     		mov	r2, #3
 157 005a 1A80     		strh	r2, [r3]
 158 005c 0FE0     		b	.L7
 159              	.L10:
 178:.\UI.c        ****         }
 179:.\UI.c        ****         else if (color == 'W')
 160              		.loc 1 179 0
 161 005e 0D4B     		ldr	r3, .L13
 162 0060 1B78     		ldrb	r3, [r3]
 163 0062 DBB2     		uxtb	r3, r3
ARM GAS  C:\Users\Gaurav\AppData\Local\Temp\ccancYRv.s 			page 7


 164 0064 572B     		cmp	r3, #87
 165 0066 03D1     		bne	.L11
 180:.\UI.c        ****         {
 181:.\UI.c        ****             currentButtonPosition = NOTE5_VALUE;
 166              		.loc 1 181 0
 167 0068 0B4B     		ldr	r3, .L13+4
 168 006a 0422     		mov	r2, #4
 169 006c 1A80     		strh	r2, [r3]
 170 006e 06E0     		b	.L7
 171              	.L11:
 182:.\UI.c        ****         }
 183:.\UI.c        ****         else
 184:.\UI.c        ****         {
 185:.\UI.c        ****             currentButtonPosition = NO_FINGER_ON_SLIDER;
 172              		.loc 1 185 0
 173 0070 094B     		ldr	r3, .L13+4
 174 0072 0122     		mov	r2, #1
 175 0074 5242     		neg	r2, r2
 176 0076 1A80     		strh	r2, [r3]
 186:.\UI.c        ****             color = 'U';
 177              		.loc 1 186 0
 178 0078 064B     		ldr	r3, .L13
 179 007a 5522     		mov	r2, #85
 180 007c 1A70     		strb	r2, [r3]
 181              	.L7:
 187:.\UI.c        ****         }
 188:.\UI.c        ****         
 189:.\UI.c        ****         uiChangeStatus = currentButtonPosition; 
 182              		.loc 1 189 0
 183 007e BB1D     		add	r3, r7, #6
 184 0080 054A     		ldr	r2, .L13+4
 185 0082 1288     		ldrh	r2, [r2]
 186 0084 1A80     		strh	r2, [r3]
 187              	.L5:
 190:.\UI.c        ****     }
 191:.\UI.c        ****     
 192:.\UI.c        ****     return uiChangeStatus;
 188              		.loc 1 192 0
 189 0086 BB1D     		add	r3, r7, #6
 190 0088 1B88     		ldrh	r3, [r3]
 193:.\UI.c        **** }
 191              		.loc 1 193 0
 192 008a 181C     		mov	r0, r3
 193 008c BD46     		mov	sp, r7
 194 008e 02B0     		add	sp, sp, #8
 195              		@ sp needed
 196 0090 80BD     		pop	{r7, pc}
 197              	.L14:
 198 0092 C046     		.align	2
 199              	.L13:
 200 0094 00000000 		.word	color
 201 0098 00000000 		.word	currentButtonPosition
 202              		.cfi_endproc
 203              	.LFE38:
 204              		.size	UIInput_Run, .-UIInput_Run
 205              		.section	.text.UIOutput_UpdateMailbox,"ax",%progbits
 206              		.align	2
ARM GAS  C:\Users\Gaurav\AppData\Local\Temp\ccancYRv.s 			page 8


 207              		.global	UIOutput_UpdateMailbox
 208              		.code	16
 209              		.thumb_func
 210              		.type	UIOutput_UpdateMailbox, %function
 211              	UIOutput_UpdateMailbox:
 212              	.LFB39:
 194:.\UI.c        **** 
 195:.\UI.c        **** /*******************************************************************************
 196:.\UI.c        **** * Function Name: UIOutput_UpdateMailbox
 197:.\UI.c        **** ********************************************************************************
 198:.\UI.c        **** * Summary:
 199:.\UI.c        **** *        Updates the UI LED output mailbox with a valid drive level data
 200:.\UI.c        **** *
 201:.\UI.c        **** * Parameters:
 202:.\UI.c        **** *  LED drive level
 203:.\UI.c        **** *
 204:.\UI.c        **** * Return:
 205:.\UI.c        **** *  Successful or not
 206:.\UI.c        **** *
 207:.\UI.c        **** *******************************************************************************/
 208:.\UI.c        **** uint8 UIOutput_UpdateMailbox (uint8 driveLevel)
 209:.\UI.c        **** {
 213              		.loc 1 209 0
 214              		.cfi_startproc
 215 0000 80B5     		push	{r7, lr}
 216              		.cfi_def_cfa_offset 8
 217              		.cfi_offset 7, -8
 218              		.cfi_offset 14, -4
 219 0002 82B0     		sub	sp, sp, #8
 220              		.cfi_def_cfa_offset 16
 221 0004 00AF     		add	r7, sp, #0
 222              		.cfi_def_cfa_register 7
 223 0006 021C     		mov	r2, r0
 224 0008 FB1D     		add	r3, r7, #7
 225 000a 1A70     		strb	r2, [r3]
 210:.\UI.c        ****     if(uiOutputMailbox.outputMailIndex != UI_OUTPUT_MAIL_SIZE)
 226              		.loc 1 210 0
 227 000c 0C4B     		ldr	r3, .L19
 228 000e 1B78     		ldrb	r3, [r3]
 229 0010 022B     		cmp	r3, #2
 230 0012 0FD0     		beq	.L16
 211:.\UI.c        ****     {
 212:.\UI.c        ****         uiOutputMailbox.outputMail[uiOutputMailbox.outputMailIndex].LedDriveLevel = driveLevel;
 231              		.loc 1 212 0
 232 0014 0A4B     		ldr	r3, .L19
 233 0016 1B78     		ldrb	r3, [r3]
 234 0018 0949     		ldr	r1, .L19
 235 001a 5B00     		lsl	r3, r3, #1
 236 001c FA1D     		add	r2, r7, #7
 237 001e CB18     		add	r3, r1, r3
 238 0020 1278     		ldrb	r2, [r2]
 239 0022 9A70     		strb	r2, [r3, #2]
 213:.\UI.c        ****         uiOutputMailbox.outputMailIndex++;
 240              		.loc 1 213 0
 241 0024 064B     		ldr	r3, .L19
 242 0026 1B78     		ldrb	r3, [r3]
 243 0028 0133     		add	r3, r3, #1
ARM GAS  C:\Users\Gaurav\AppData\Local\Temp\ccancYRv.s 			page 9


 244 002a DAB2     		uxtb	r2, r3
 245 002c 044B     		ldr	r3, .L19
 246 002e 1A70     		strb	r2, [r3]
 214:.\UI.c        ****     }
 215:.\UI.c        ****     else
 216:.\UI.c        ****     {
 217:.\UI.c        ****         return UI_MAIL_UPDATE_OVERFLOW_FAILURE;
 218:.\UI.c        ****     }
 219:.\UI.c        ****     
 220:.\UI.c        ****     return UI_MAIL_UPDATE_SUCCESSFUL;
 247              		.loc 1 220 0
 248 0030 0123     		mov	r3, #1
 249 0032 00E0     		b	.L18
 250              	.L16:
 217:.\UI.c        ****     }
 251              		.loc 1 217 0
 252 0034 0023     		mov	r3, #0
 253              	.L18:
 221:.\UI.c        **** }
 254              		.loc 1 221 0
 255 0036 181C     		mov	r0, r3
 256 0038 BD46     		mov	sp, r7
 257 003a 02B0     		add	sp, sp, #8
 258              		@ sp needed
 259 003c 80BD     		pop	{r7, pc}
 260              	.L20:
 261 003e C046     		.align	2
 262              	.L19:
 263 0040 00000000 		.word	uiOutputMailbox
 264              		.cfi_endproc
 265              	.LFE39:
 266              		.size	UIOutput_UpdateMailbox, .-UIOutput_UpdateMailbox
 267              		.section	.text.UIOutput_Run,"ax",%progbits
 268              		.align	2
 269              		.global	UIOutput_Run
 270              		.code	16
 271              		.thumb_func
 272              		.type	UIOutput_Run, %function
 273              	UIOutput_Run:
 274              	.LFB40:
 222:.\UI.c        **** 
 223:.\UI.c        **** /*******************************************************************************
 224:.\UI.c        **** * Function Name: UIOutput_Run
 225:.\UI.c        **** ********************************************************************************
 226:.\UI.c        **** * Summary:
 227:.\UI.c        **** *        Runs the user interface output engine for the MIDI interface
 228:.\UI.c        **** *
 229:.\UI.c        **** * Parameters:
 230:.\UI.c        **** *  void
 231:.\UI.c        **** *
 232:.\UI.c        **** * Return:
 233:.\UI.c        **** *  void
 234:.\UI.c        **** *
 235:.\UI.c        **** *******************************************************************************/
 236:.\UI.c        **** void UIOutput_Run(void)
 237:.\UI.c        **** {
 275              		.loc 1 237 0
ARM GAS  C:\Users\Gaurav\AppData\Local\Temp\ccancYRv.s 			page 10


 276              		.cfi_startproc
 277 0000 80B5     		push	{r7, lr}
 278              		.cfi_def_cfa_offset 8
 279              		.cfi_offset 7, -8
 280              		.cfi_offset 14, -4
 281 0002 00AF     		add	r7, sp, #0
 282              		.cfi_def_cfa_register 7
 238:.\UI.c        ****     while(uiOutputMailbox.outputMailIndex != 0)
 283              		.loc 1 238 0
 284 0004 0EE0     		b	.L22
 285              	.L23:
 239:.\UI.c        ****     {
 240:.\UI.c        ****         uiOutputMailbox.outputMailIndex--;
 286              		.loc 1 240 0
 287 0006 0A4B     		ldr	r3, .L24
 288 0008 1B78     		ldrb	r3, [r3]
 289 000a 013B     		sub	r3, r3, #1
 290 000c DAB2     		uxtb	r2, r3
 291 000e 084B     		ldr	r3, .L24
 292 0010 1A70     		strb	r2, [r3]
 241:.\UI.c        ****         PWM_WriteCompare(uiOutputMailbox.outputMail[uiOutputMailbox.outputMailIndex].LedDriveLevel)
 293              		.loc 1 241 0
 294 0012 074B     		ldr	r3, .L24
 295 0014 1B78     		ldrb	r3, [r3]
 296 0016 064A     		ldr	r2, .L24
 297 0018 5B00     		lsl	r3, r3, #1
 298 001a D318     		add	r3, r2, r3
 299 001c 9B78     		ldrb	r3, [r3, #2]
 300 001e 181C     		mov	r0, r3
 301 0020 FFF7FEFF 		bl	PWM_WriteCompare
 302              	.L22:
 238:.\UI.c        ****     while(uiOutputMailbox.outputMailIndex != 0)
 303              		.loc 1 238 0
 304 0024 024B     		ldr	r3, .L24
 305 0026 1B78     		ldrb	r3, [r3]
 306 0028 002B     		cmp	r3, #0
 307 002a ECD1     		bne	.L23
 242:.\UI.c        ****     }
 243:.\UI.c        **** }
 308              		.loc 1 243 0
 309 002c BD46     		mov	sp, r7
 310              		@ sp needed
 311 002e 80BD     		pop	{r7, pc}
 312              	.L25:
 313              		.align	2
 314              	.L24:
 315 0030 00000000 		.word	uiOutputMailbox
 316              		.cfi_endproc
 317              	.LFE40:
 318              		.size	UIOutput_Run, .-UIOutput_Run
 319              		.text
 320              	.Letext0:
 321              		.file 2 "Generated_Source\\PSoC4/Cytypes.h"
 322              		.file 3 "./UI.h"
 323              		.file 4 "Generated_Source\\PSoC4/BLE_Stack.h"